ARM GAS  /tmp/ccKo6yLr.s 			page 1


   1              		.cpu cortex-m3
   2              		.eabi_attribute 20, 1
   3              		.eabi_attribute 21, 1
   4              		.eabi_attribute 23, 3
   5              		.eabi_attribute 24, 1
   6              		.eabi_attribute 25, 1
   7              		.eabi_attribute 26, 1
   8              		.eabi_attribute 30, 1
   9              		.eabi_attribute 34, 1
  10              		.eabi_attribute 18, 4
  11              		.file	"stm32f1xx_hal_adc_ex.c"
  12              		.text
  13              	.Ltext0:
  14              		.cfi_sections	.debug_frame
  15              		.section	.text.HAL_ADCEx_Calibration_Start,"ax",%progbits
  16              		.align	1
  17              		.global	HAL_ADCEx_Calibration_Start
  18              		.arch armv7-m
  19              		.syntax unified
  20              		.thumb
  21              		.thumb_func
  22              		.fpu softvfp
  24              	HAL_ADCEx_Calibration_Start:
  25              	.LVL0:
  26              	.LFB65:
  27              		.file 1 "Drivers/STM32F1xx_HAL_Driver/Src/stm32f1xx_hal_adc_ex.c"
   1:Drivers/STM32F1xx_HAL_Driver/Src/stm32f1xx_hal_adc_ex.c **** /**
   2:Drivers/STM32F1xx_HAL_Driver/Src/stm32f1xx_hal_adc_ex.c ****   ******************************************************************************
   3:Drivers/STM32F1xx_HAL_Driver/Src/stm32f1xx_hal_adc_ex.c ****   * @file    stm32f1xx_hal_adc_ex.c
   4:Drivers/STM32F1xx_HAL_Driver/Src/stm32f1xx_hal_adc_ex.c ****   * @author  MCD Application Team
   5:Drivers/STM32F1xx_HAL_Driver/Src/stm32f1xx_hal_adc_ex.c ****   * @brief   This file provides firmware functions to manage the following 
   6:Drivers/STM32F1xx_HAL_Driver/Src/stm32f1xx_hal_adc_ex.c ****   *          functionalities of the Analog to Digital Convertor (ADC)
   7:Drivers/STM32F1xx_HAL_Driver/Src/stm32f1xx_hal_adc_ex.c ****   *          peripheral:
   8:Drivers/STM32F1xx_HAL_Driver/Src/stm32f1xx_hal_adc_ex.c ****   *           + Peripheral Control functions
   9:Drivers/STM32F1xx_HAL_Driver/Src/stm32f1xx_hal_adc_ex.c ****   *          Other functions (generic functions) are available in file 
  10:Drivers/STM32F1xx_HAL_Driver/Src/stm32f1xx_hal_adc_ex.c ****   *          "stm32f1xx_hal_adc.c".
  11:Drivers/STM32F1xx_HAL_Driver/Src/stm32f1xx_hal_adc_ex.c ****   *
  12:Drivers/STM32F1xx_HAL_Driver/Src/stm32f1xx_hal_adc_ex.c ****   ******************************************************************************
  13:Drivers/STM32F1xx_HAL_Driver/Src/stm32f1xx_hal_adc_ex.c ****   * @attention
  14:Drivers/STM32F1xx_HAL_Driver/Src/stm32f1xx_hal_adc_ex.c ****   *
  15:Drivers/STM32F1xx_HAL_Driver/Src/stm32f1xx_hal_adc_ex.c ****   * Copyright (c) 2016 STMicroelectronics.
  16:Drivers/STM32F1xx_HAL_Driver/Src/stm32f1xx_hal_adc_ex.c ****   * All rights reserved.
  17:Drivers/STM32F1xx_HAL_Driver/Src/stm32f1xx_hal_adc_ex.c ****   *
  18:Drivers/STM32F1xx_HAL_Driver/Src/stm32f1xx_hal_adc_ex.c ****   * This software is licensed under terms that can be found in the LICENSE file
  19:Drivers/STM32F1xx_HAL_Driver/Src/stm32f1xx_hal_adc_ex.c ****   * in the root directory of this software component.
  20:Drivers/STM32F1xx_HAL_Driver/Src/stm32f1xx_hal_adc_ex.c ****   * If no LICENSE file comes with this software, it is provided AS-IS.
  21:Drivers/STM32F1xx_HAL_Driver/Src/stm32f1xx_hal_adc_ex.c ****   *
  22:Drivers/STM32F1xx_HAL_Driver/Src/stm32f1xx_hal_adc_ex.c ****   ******************************************************************************
  23:Drivers/STM32F1xx_HAL_Driver/Src/stm32f1xx_hal_adc_ex.c ****   @verbatim
  24:Drivers/STM32F1xx_HAL_Driver/Src/stm32f1xx_hal_adc_ex.c ****   [..] 
  25:Drivers/STM32F1xx_HAL_Driver/Src/stm32f1xx_hal_adc_ex.c ****   (@) Sections "ADC peripheral features" and "How to use this driver" are
  26:Drivers/STM32F1xx_HAL_Driver/Src/stm32f1xx_hal_adc_ex.c ****       available in file of generic functions "stm32f1xx_hal_adc.c".
  27:Drivers/STM32F1xx_HAL_Driver/Src/stm32f1xx_hal_adc_ex.c ****   [..]
  28:Drivers/STM32F1xx_HAL_Driver/Src/stm32f1xx_hal_adc_ex.c ****   @endverbatim
  29:Drivers/STM32F1xx_HAL_Driver/Src/stm32f1xx_hal_adc_ex.c ****   */
  30:Drivers/STM32F1xx_HAL_Driver/Src/stm32f1xx_hal_adc_ex.c **** 
  31:Drivers/STM32F1xx_HAL_Driver/Src/stm32f1xx_hal_adc_ex.c **** /* Includes ------------------------------------------------------------------*/
ARM GAS  /tmp/ccKo6yLr.s 			page 2


  32:Drivers/STM32F1xx_HAL_Driver/Src/stm32f1xx_hal_adc_ex.c **** #include "stm32f1xx_hal.h"
  33:Drivers/STM32F1xx_HAL_Driver/Src/stm32f1xx_hal_adc_ex.c **** 
  34:Drivers/STM32F1xx_HAL_Driver/Src/stm32f1xx_hal_adc_ex.c **** /** @addtogroup STM32F1xx_HAL_Driver
  35:Drivers/STM32F1xx_HAL_Driver/Src/stm32f1xx_hal_adc_ex.c ****   * @{
  36:Drivers/STM32F1xx_HAL_Driver/Src/stm32f1xx_hal_adc_ex.c ****   */
  37:Drivers/STM32F1xx_HAL_Driver/Src/stm32f1xx_hal_adc_ex.c **** 
  38:Drivers/STM32F1xx_HAL_Driver/Src/stm32f1xx_hal_adc_ex.c **** /** @defgroup ADCEx ADCEx
  39:Drivers/STM32F1xx_HAL_Driver/Src/stm32f1xx_hal_adc_ex.c ****   * @brief ADC Extension HAL module driver
  40:Drivers/STM32F1xx_HAL_Driver/Src/stm32f1xx_hal_adc_ex.c ****   * @{
  41:Drivers/STM32F1xx_HAL_Driver/Src/stm32f1xx_hal_adc_ex.c ****   */
  42:Drivers/STM32F1xx_HAL_Driver/Src/stm32f1xx_hal_adc_ex.c **** 
  43:Drivers/STM32F1xx_HAL_Driver/Src/stm32f1xx_hal_adc_ex.c **** #ifdef HAL_ADC_MODULE_ENABLED
  44:Drivers/STM32F1xx_HAL_Driver/Src/stm32f1xx_hal_adc_ex.c **** 
  45:Drivers/STM32F1xx_HAL_Driver/Src/stm32f1xx_hal_adc_ex.c **** /* Private typedef -----------------------------------------------------------*/
  46:Drivers/STM32F1xx_HAL_Driver/Src/stm32f1xx_hal_adc_ex.c **** /* Private define ------------------------------------------------------------*/
  47:Drivers/STM32F1xx_HAL_Driver/Src/stm32f1xx_hal_adc_ex.c **** /** @defgroup ADCEx_Private_Constants ADCEx Private Constants
  48:Drivers/STM32F1xx_HAL_Driver/Src/stm32f1xx_hal_adc_ex.c ****   * @{
  49:Drivers/STM32F1xx_HAL_Driver/Src/stm32f1xx_hal_adc_ex.c ****   */
  50:Drivers/STM32F1xx_HAL_Driver/Src/stm32f1xx_hal_adc_ex.c **** 
  51:Drivers/STM32F1xx_HAL_Driver/Src/stm32f1xx_hal_adc_ex.c ****   /* Delay for ADC calibration:                                               */
  52:Drivers/STM32F1xx_HAL_Driver/Src/stm32f1xx_hal_adc_ex.c ****   /* Hardware prerequisite before starting a calibration: the ADC must have   */
  53:Drivers/STM32F1xx_HAL_Driver/Src/stm32f1xx_hal_adc_ex.c ****   /* been in power-on state for at least two ADC clock cycles.                */
  54:Drivers/STM32F1xx_HAL_Driver/Src/stm32f1xx_hal_adc_ex.c ****   /* Unit: ADC clock cycles                                                   */
  55:Drivers/STM32F1xx_HAL_Driver/Src/stm32f1xx_hal_adc_ex.c ****   #define ADC_PRECALIBRATION_DELAY_ADCCLOCKCYCLES       2U
  56:Drivers/STM32F1xx_HAL_Driver/Src/stm32f1xx_hal_adc_ex.c **** 
  57:Drivers/STM32F1xx_HAL_Driver/Src/stm32f1xx_hal_adc_ex.c ****   /* Timeout value for ADC calibration                                        */
  58:Drivers/STM32F1xx_HAL_Driver/Src/stm32f1xx_hal_adc_ex.c ****   /* Value defined to be higher than worst cases: low clocks freq,            */
  59:Drivers/STM32F1xx_HAL_Driver/Src/stm32f1xx_hal_adc_ex.c ****   /* maximum prescaler.                                                       */
  60:Drivers/STM32F1xx_HAL_Driver/Src/stm32f1xx_hal_adc_ex.c ****   /* Ex of profile low frequency : Clock source at 0.1 MHz, ADC clock         */
  61:Drivers/STM32F1xx_HAL_Driver/Src/stm32f1xx_hal_adc_ex.c ****   /* prescaler 4, sampling time 12.5 ADC clock cycles, resolution 12 bits.    */
  62:Drivers/STM32F1xx_HAL_Driver/Src/stm32f1xx_hal_adc_ex.c ****   /* Unit: ms                                                                 */
  63:Drivers/STM32F1xx_HAL_Driver/Src/stm32f1xx_hal_adc_ex.c ****   #define ADC_CALIBRATION_TIMEOUT          10U
  64:Drivers/STM32F1xx_HAL_Driver/Src/stm32f1xx_hal_adc_ex.c **** 
  65:Drivers/STM32F1xx_HAL_Driver/Src/stm32f1xx_hal_adc_ex.c ****   /* Delay for temperature sensor stabilization time.                         */
  66:Drivers/STM32F1xx_HAL_Driver/Src/stm32f1xx_hal_adc_ex.c ****   /* Maximum delay is 10us (refer to device datasheet, parameter tSTART).     */
  67:Drivers/STM32F1xx_HAL_Driver/Src/stm32f1xx_hal_adc_ex.c ****   /* Unit: us                                                                 */
  68:Drivers/STM32F1xx_HAL_Driver/Src/stm32f1xx_hal_adc_ex.c ****   #define ADC_TEMPSENSOR_DELAY_US         10U
  69:Drivers/STM32F1xx_HAL_Driver/Src/stm32f1xx_hal_adc_ex.c **** 
  70:Drivers/STM32F1xx_HAL_Driver/Src/stm32f1xx_hal_adc_ex.c **** /**
  71:Drivers/STM32F1xx_HAL_Driver/Src/stm32f1xx_hal_adc_ex.c ****   * @}
  72:Drivers/STM32F1xx_HAL_Driver/Src/stm32f1xx_hal_adc_ex.c ****   */
  73:Drivers/STM32F1xx_HAL_Driver/Src/stm32f1xx_hal_adc_ex.c **** 
  74:Drivers/STM32F1xx_HAL_Driver/Src/stm32f1xx_hal_adc_ex.c **** /* Private macro -------------------------------------------------------------*/
  75:Drivers/STM32F1xx_HAL_Driver/Src/stm32f1xx_hal_adc_ex.c **** /* Private variables ---------------------------------------------------------*/
  76:Drivers/STM32F1xx_HAL_Driver/Src/stm32f1xx_hal_adc_ex.c **** /* Private function prototypes -----------------------------------------------*/
  77:Drivers/STM32F1xx_HAL_Driver/Src/stm32f1xx_hal_adc_ex.c **** /* Private functions ---------------------------------------------------------*/
  78:Drivers/STM32F1xx_HAL_Driver/Src/stm32f1xx_hal_adc_ex.c **** 
  79:Drivers/STM32F1xx_HAL_Driver/Src/stm32f1xx_hal_adc_ex.c **** /** @defgroup ADCEx_Exported_Functions ADCEx Exported Functions
  80:Drivers/STM32F1xx_HAL_Driver/Src/stm32f1xx_hal_adc_ex.c ****   * @{
  81:Drivers/STM32F1xx_HAL_Driver/Src/stm32f1xx_hal_adc_ex.c ****   */
  82:Drivers/STM32F1xx_HAL_Driver/Src/stm32f1xx_hal_adc_ex.c **** 
  83:Drivers/STM32F1xx_HAL_Driver/Src/stm32f1xx_hal_adc_ex.c **** /** @defgroup ADCEx_Exported_Functions_Group1 Extended Extended IO operation functions
  84:Drivers/STM32F1xx_HAL_Driver/Src/stm32f1xx_hal_adc_ex.c ****  *  @brief    Extended Extended Input and Output operation functions
  85:Drivers/STM32F1xx_HAL_Driver/Src/stm32f1xx_hal_adc_ex.c ****  *
  86:Drivers/STM32F1xx_HAL_Driver/Src/stm32f1xx_hal_adc_ex.c **** @verbatim    
  87:Drivers/STM32F1xx_HAL_Driver/Src/stm32f1xx_hal_adc_ex.c ****  ===============================================================================
  88:Drivers/STM32F1xx_HAL_Driver/Src/stm32f1xx_hal_adc_ex.c ****                       ##### IO operation functions #####
ARM GAS  /tmp/ccKo6yLr.s 			page 3


  89:Drivers/STM32F1xx_HAL_Driver/Src/stm32f1xx_hal_adc_ex.c ****  ===============================================================================
  90:Drivers/STM32F1xx_HAL_Driver/Src/stm32f1xx_hal_adc_ex.c ****     [..]  This section provides functions allowing to:
  91:Drivers/STM32F1xx_HAL_Driver/Src/stm32f1xx_hal_adc_ex.c ****       (+) Start conversion of injected group.
  92:Drivers/STM32F1xx_HAL_Driver/Src/stm32f1xx_hal_adc_ex.c ****       (+) Stop conversion of injected group.
  93:Drivers/STM32F1xx_HAL_Driver/Src/stm32f1xx_hal_adc_ex.c ****       (+) Poll for conversion complete on injected group.
  94:Drivers/STM32F1xx_HAL_Driver/Src/stm32f1xx_hal_adc_ex.c ****       (+) Get result of injected channel conversion.
  95:Drivers/STM32F1xx_HAL_Driver/Src/stm32f1xx_hal_adc_ex.c ****       (+) Start conversion of injected group and enable interruptions.
  96:Drivers/STM32F1xx_HAL_Driver/Src/stm32f1xx_hal_adc_ex.c ****       (+) Stop conversion of injected group and disable interruptions.
  97:Drivers/STM32F1xx_HAL_Driver/Src/stm32f1xx_hal_adc_ex.c **** 
  98:Drivers/STM32F1xx_HAL_Driver/Src/stm32f1xx_hal_adc_ex.c ****       (+) Start multimode and enable DMA transfer.
  99:Drivers/STM32F1xx_HAL_Driver/Src/stm32f1xx_hal_adc_ex.c ****       (+) Stop multimode and disable ADC DMA transfer.
 100:Drivers/STM32F1xx_HAL_Driver/Src/stm32f1xx_hal_adc_ex.c ****       (+) Get result of multimode conversion.
 101:Drivers/STM32F1xx_HAL_Driver/Src/stm32f1xx_hal_adc_ex.c **** 
 102:Drivers/STM32F1xx_HAL_Driver/Src/stm32f1xx_hal_adc_ex.c ****       (+) Perform the ADC self-calibration for single or differential ending.
 103:Drivers/STM32F1xx_HAL_Driver/Src/stm32f1xx_hal_adc_ex.c ****       (+) Get calibration factors for single or differential ending.
 104:Drivers/STM32F1xx_HAL_Driver/Src/stm32f1xx_hal_adc_ex.c ****       (+) Set calibration factors for single or differential ending.
 105:Drivers/STM32F1xx_HAL_Driver/Src/stm32f1xx_hal_adc_ex.c ****       
 106:Drivers/STM32F1xx_HAL_Driver/Src/stm32f1xx_hal_adc_ex.c **** @endverbatim
 107:Drivers/STM32F1xx_HAL_Driver/Src/stm32f1xx_hal_adc_ex.c ****   * @{
 108:Drivers/STM32F1xx_HAL_Driver/Src/stm32f1xx_hal_adc_ex.c ****   */
 109:Drivers/STM32F1xx_HAL_Driver/Src/stm32f1xx_hal_adc_ex.c **** 
 110:Drivers/STM32F1xx_HAL_Driver/Src/stm32f1xx_hal_adc_ex.c **** /**
 111:Drivers/STM32F1xx_HAL_Driver/Src/stm32f1xx_hal_adc_ex.c ****   * @brief  Perform an ADC automatic self-calibration
 112:Drivers/STM32F1xx_HAL_Driver/Src/stm32f1xx_hal_adc_ex.c ****   *         Calibration prerequisite: ADC must be disabled (execute this
 113:Drivers/STM32F1xx_HAL_Driver/Src/stm32f1xx_hal_adc_ex.c ****   *         function before HAL_ADC_Start() or after HAL_ADC_Stop() ).
 114:Drivers/STM32F1xx_HAL_Driver/Src/stm32f1xx_hal_adc_ex.c ****   *         During calibration process, ADC is enabled. ADC is let enabled at
 115:Drivers/STM32F1xx_HAL_Driver/Src/stm32f1xx_hal_adc_ex.c ****   *         the completion of this function.
 116:Drivers/STM32F1xx_HAL_Driver/Src/stm32f1xx_hal_adc_ex.c ****   * @param  hadc: ADC handle
 117:Drivers/STM32F1xx_HAL_Driver/Src/stm32f1xx_hal_adc_ex.c ****   * @retval HAL status
 118:Drivers/STM32F1xx_HAL_Driver/Src/stm32f1xx_hal_adc_ex.c ****   */
 119:Drivers/STM32F1xx_HAL_Driver/Src/stm32f1xx_hal_adc_ex.c **** HAL_StatusTypeDef HAL_ADCEx_Calibration_Start(ADC_HandleTypeDef* hadc)
 120:Drivers/STM32F1xx_HAL_Driver/Src/stm32f1xx_hal_adc_ex.c **** {
  28              		.loc 1 120 1 view -0
  29              		.cfi_startproc
  30              		@ args = 0, pretend = 0, frame = 8
  31              		@ frame_needed = 0, uses_anonymous_args = 0
  32              		.loc 1 120 1 is_stmt 0 view .LVU1
  33 0000 70B5     		push	{r4, r5, r6, lr}
  34              	.LCFI0:
  35              		.cfi_def_cfa_offset 16
  36              		.cfi_offset 4, -16
  37              		.cfi_offset 5, -12
  38              		.cfi_offset 6, -8
  39              		.cfi_offset 14, -4
  40 0002 82B0     		sub	sp, sp, #8
  41              	.LCFI1:
  42              		.cfi_def_cfa_offset 24
 121:Drivers/STM32F1xx_HAL_Driver/Src/stm32f1xx_hal_adc_ex.c ****   HAL_StatusTypeDef tmp_hal_status = HAL_OK;
  43              		.loc 1 121 3 is_stmt 1 view .LVU2
  44              	.LVL1:
 122:Drivers/STM32F1xx_HAL_Driver/Src/stm32f1xx_hal_adc_ex.c ****   uint32_t tickstart;
  45              		.loc 1 122 3 view .LVU3
 123:Drivers/STM32F1xx_HAL_Driver/Src/stm32f1xx_hal_adc_ex.c ****   __IO uint32_t wait_loop_index = 0U;
  46              		.loc 1 123 3 view .LVU4
  47              		.loc 1 123 17 is_stmt 0 view .LVU5
  48 0004 0023     		movs	r3, #0
  49 0006 0193     		str	r3, [sp, #4]
ARM GAS  /tmp/ccKo6yLr.s 			page 4


 124:Drivers/STM32F1xx_HAL_Driver/Src/stm32f1xx_hal_adc_ex.c ****   
 125:Drivers/STM32F1xx_HAL_Driver/Src/stm32f1xx_hal_adc_ex.c ****   /* Check the parameters */
 126:Drivers/STM32F1xx_HAL_Driver/Src/stm32f1xx_hal_adc_ex.c ****   assert_param(IS_ADC_ALL_INSTANCE(hadc->Instance));
  50              		.loc 1 126 3 is_stmt 1 view .LVU6
 127:Drivers/STM32F1xx_HAL_Driver/Src/stm32f1xx_hal_adc_ex.c **** 
 128:Drivers/STM32F1xx_HAL_Driver/Src/stm32f1xx_hal_adc_ex.c ****   /* Process locked */
 129:Drivers/STM32F1xx_HAL_Driver/Src/stm32f1xx_hal_adc_ex.c ****   __HAL_LOCK(hadc);
  51              		.loc 1 129 3 view .LVU7
  52              		.loc 1 129 3 view .LVU8
  53 0008 90F82430 		ldrb	r3, [r0, #36]	@ zero_extendqisi2
  54 000c 012B     		cmp	r3, #1
  55 000e 72D0     		beq	.L10
  56 0010 0446     		mov	r4, r0
  57              		.loc 1 129 3 discriminator 2 view .LVU9
  58 0012 0123     		movs	r3, #1
  59 0014 80F82430 		strb	r3, [r0, #36]
  60              		.loc 1 129 3 discriminator 2 view .LVU10
 130:Drivers/STM32F1xx_HAL_Driver/Src/stm32f1xx_hal_adc_ex.c ****     
 131:Drivers/STM32F1xx_HAL_Driver/Src/stm32f1xx_hal_adc_ex.c ****    /* 1. Disable ADC peripheral                                                 */
 132:Drivers/STM32F1xx_HAL_Driver/Src/stm32f1xx_hal_adc_ex.c ****    tmp_hal_status = ADC_ConversionStop_Disable(hadc);
  61              		.loc 1 132 4 discriminator 2 view .LVU11
  62              		.loc 1 132 21 is_stmt 0 discriminator 2 view .LVU12
  63 0018 FFF7FEFF 		bl	ADC_ConversionStop_Disable
  64              	.LVL2:
 133:Drivers/STM32F1xx_HAL_Driver/Src/stm32f1xx_hal_adc_ex.c ****   
 134:Drivers/STM32F1xx_HAL_Driver/Src/stm32f1xx_hal_adc_ex.c ****    /* 2. Calibration prerequisite delay before starting the calibration.       */
 135:Drivers/STM32F1xx_HAL_Driver/Src/stm32f1xx_hal_adc_ex.c ****    /*    - ADC must be enabled for at least two ADC clock cycles               */
 136:Drivers/STM32F1xx_HAL_Driver/Src/stm32f1xx_hal_adc_ex.c ****    tmp_hal_status = ADC_Enable(hadc);
  65              		.loc 1 136 4 is_stmt 1 discriminator 2 view .LVU13
  66              		.loc 1 136 21 is_stmt 0 discriminator 2 view .LVU14
  67 001c 2046     		mov	r0, r4
  68 001e FFF7FEFF 		bl	ADC_Enable
  69              	.LVL3:
 137:Drivers/STM32F1xx_HAL_Driver/Src/stm32f1xx_hal_adc_ex.c **** 
 138:Drivers/STM32F1xx_HAL_Driver/Src/stm32f1xx_hal_adc_ex.c ****    /* Check if ADC is effectively enabled */
 139:Drivers/STM32F1xx_HAL_Driver/Src/stm32f1xx_hal_adc_ex.c ****    if (tmp_hal_status == HAL_OK)
  70              		.loc 1 139 4 is_stmt 1 discriminator 2 view .LVU15
  71              		.loc 1 139 7 is_stmt 0 discriminator 2 view .LVU16
  72 0022 0546     		mov	r5, r0
  73 0024 28B1     		cbz	r0, .L12
  74              	.LVL4:
  75              	.L3:
 140:Drivers/STM32F1xx_HAL_Driver/Src/stm32f1xx_hal_adc_ex.c ****    {
 141:Drivers/STM32F1xx_HAL_Driver/Src/stm32f1xx_hal_adc_ex.c ****      /* Set ADC state */
 142:Drivers/STM32F1xx_HAL_Driver/Src/stm32f1xx_hal_adc_ex.c ****      ADC_STATE_CLR_SET(hadc->State,
 143:Drivers/STM32F1xx_HAL_Driver/Src/stm32f1xx_hal_adc_ex.c ****                        HAL_ADC_STATE_REG_BUSY | HAL_ADC_STATE_INJ_BUSY,
 144:Drivers/STM32F1xx_HAL_Driver/Src/stm32f1xx_hal_adc_ex.c ****                        HAL_ADC_STATE_BUSY_INTERNAL);
 145:Drivers/STM32F1xx_HAL_Driver/Src/stm32f1xx_hal_adc_ex.c ****     
 146:Drivers/STM32F1xx_HAL_Driver/Src/stm32f1xx_hal_adc_ex.c ****     /* Hardware prerequisite: delay before starting the calibration.          */
 147:Drivers/STM32F1xx_HAL_Driver/Src/stm32f1xx_hal_adc_ex.c ****     /*  - Computation of CPU clock cycles corresponding to ADC clock cycles.  */
 148:Drivers/STM32F1xx_HAL_Driver/Src/stm32f1xx_hal_adc_ex.c ****     /*  - Wait for the expected ADC clock cycles delay */
 149:Drivers/STM32F1xx_HAL_Driver/Src/stm32f1xx_hal_adc_ex.c ****     wait_loop_index = ((SystemCoreClock
 150:Drivers/STM32F1xx_HAL_Driver/Src/stm32f1xx_hal_adc_ex.c ****                         / HAL_RCCEx_GetPeriphCLKFreq(RCC_PERIPHCLK_ADC))
 151:Drivers/STM32F1xx_HAL_Driver/Src/stm32f1xx_hal_adc_ex.c ****                        * ADC_PRECALIBRATION_DELAY_ADCCLOCKCYCLES        );
 152:Drivers/STM32F1xx_HAL_Driver/Src/stm32f1xx_hal_adc_ex.c **** 
 153:Drivers/STM32F1xx_HAL_Driver/Src/stm32f1xx_hal_adc_ex.c ****     while(wait_loop_index != 0U)
 154:Drivers/STM32F1xx_HAL_Driver/Src/stm32f1xx_hal_adc_ex.c ****     {
ARM GAS  /tmp/ccKo6yLr.s 			page 5


 155:Drivers/STM32F1xx_HAL_Driver/Src/stm32f1xx_hal_adc_ex.c ****       wait_loop_index--;
 156:Drivers/STM32F1xx_HAL_Driver/Src/stm32f1xx_hal_adc_ex.c ****     }
 157:Drivers/STM32F1xx_HAL_Driver/Src/stm32f1xx_hal_adc_ex.c **** 
 158:Drivers/STM32F1xx_HAL_Driver/Src/stm32f1xx_hal_adc_ex.c ****     /* 3. Resets ADC calibration registers */  
 159:Drivers/STM32F1xx_HAL_Driver/Src/stm32f1xx_hal_adc_ex.c ****     SET_BIT(hadc->Instance->CR2, ADC_CR2_RSTCAL);
 160:Drivers/STM32F1xx_HAL_Driver/Src/stm32f1xx_hal_adc_ex.c ****     
 161:Drivers/STM32F1xx_HAL_Driver/Src/stm32f1xx_hal_adc_ex.c ****     tickstart = HAL_GetTick();  
 162:Drivers/STM32F1xx_HAL_Driver/Src/stm32f1xx_hal_adc_ex.c **** 
 163:Drivers/STM32F1xx_HAL_Driver/Src/stm32f1xx_hal_adc_ex.c ****     /* Wait for calibration reset completion */
 164:Drivers/STM32F1xx_HAL_Driver/Src/stm32f1xx_hal_adc_ex.c ****     while(HAL_IS_BIT_SET(hadc->Instance->CR2, ADC_CR2_RSTCAL))
 165:Drivers/STM32F1xx_HAL_Driver/Src/stm32f1xx_hal_adc_ex.c ****     {
 166:Drivers/STM32F1xx_HAL_Driver/Src/stm32f1xx_hal_adc_ex.c ****       if((HAL_GetTick() - tickstart) > ADC_CALIBRATION_TIMEOUT)
 167:Drivers/STM32F1xx_HAL_Driver/Src/stm32f1xx_hal_adc_ex.c ****       {
 168:Drivers/STM32F1xx_HAL_Driver/Src/stm32f1xx_hal_adc_ex.c ****         /* New check to avoid false timeout detection in case of preemption */
 169:Drivers/STM32F1xx_HAL_Driver/Src/stm32f1xx_hal_adc_ex.c ****         if(HAL_IS_BIT_SET(hadc->Instance->CR2, ADC_CR2_RSTCAL))
 170:Drivers/STM32F1xx_HAL_Driver/Src/stm32f1xx_hal_adc_ex.c ****         {
 171:Drivers/STM32F1xx_HAL_Driver/Src/stm32f1xx_hal_adc_ex.c ****           /* Update ADC state machine to error */
 172:Drivers/STM32F1xx_HAL_Driver/Src/stm32f1xx_hal_adc_ex.c ****           ADC_STATE_CLR_SET(hadc->State,
 173:Drivers/STM32F1xx_HAL_Driver/Src/stm32f1xx_hal_adc_ex.c ****                             HAL_ADC_STATE_BUSY_INTERNAL,
 174:Drivers/STM32F1xx_HAL_Driver/Src/stm32f1xx_hal_adc_ex.c ****                             HAL_ADC_STATE_ERROR_INTERNAL);
 175:Drivers/STM32F1xx_HAL_Driver/Src/stm32f1xx_hal_adc_ex.c **** 
 176:Drivers/STM32F1xx_HAL_Driver/Src/stm32f1xx_hal_adc_ex.c ****           /* Process unlocked */
 177:Drivers/STM32F1xx_HAL_Driver/Src/stm32f1xx_hal_adc_ex.c ****           __HAL_UNLOCK(hadc);
 178:Drivers/STM32F1xx_HAL_Driver/Src/stm32f1xx_hal_adc_ex.c **** 
 179:Drivers/STM32F1xx_HAL_Driver/Src/stm32f1xx_hal_adc_ex.c ****           return HAL_ERROR;
 180:Drivers/STM32F1xx_HAL_Driver/Src/stm32f1xx_hal_adc_ex.c ****         }
 181:Drivers/STM32F1xx_HAL_Driver/Src/stm32f1xx_hal_adc_ex.c ****       }
 182:Drivers/STM32F1xx_HAL_Driver/Src/stm32f1xx_hal_adc_ex.c ****     }
 183:Drivers/STM32F1xx_HAL_Driver/Src/stm32f1xx_hal_adc_ex.c ****     
 184:Drivers/STM32F1xx_HAL_Driver/Src/stm32f1xx_hal_adc_ex.c ****     /* 4. Start ADC calibration */
 185:Drivers/STM32F1xx_HAL_Driver/Src/stm32f1xx_hal_adc_ex.c ****     SET_BIT(hadc->Instance->CR2, ADC_CR2_CAL);
 186:Drivers/STM32F1xx_HAL_Driver/Src/stm32f1xx_hal_adc_ex.c ****     
 187:Drivers/STM32F1xx_HAL_Driver/Src/stm32f1xx_hal_adc_ex.c ****     tickstart = HAL_GetTick();  
 188:Drivers/STM32F1xx_HAL_Driver/Src/stm32f1xx_hal_adc_ex.c **** 
 189:Drivers/STM32F1xx_HAL_Driver/Src/stm32f1xx_hal_adc_ex.c ****     /* Wait for calibration completion */
 190:Drivers/STM32F1xx_HAL_Driver/Src/stm32f1xx_hal_adc_ex.c ****     while(HAL_IS_BIT_SET(hadc->Instance->CR2, ADC_CR2_CAL))
 191:Drivers/STM32F1xx_HAL_Driver/Src/stm32f1xx_hal_adc_ex.c ****     {
 192:Drivers/STM32F1xx_HAL_Driver/Src/stm32f1xx_hal_adc_ex.c ****       if((HAL_GetTick() - tickstart) > ADC_CALIBRATION_TIMEOUT)
 193:Drivers/STM32F1xx_HAL_Driver/Src/stm32f1xx_hal_adc_ex.c ****       {
 194:Drivers/STM32F1xx_HAL_Driver/Src/stm32f1xx_hal_adc_ex.c ****         /* New check to avoid false timeout detection in case of preemption */
 195:Drivers/STM32F1xx_HAL_Driver/Src/stm32f1xx_hal_adc_ex.c ****         if(HAL_IS_BIT_SET(hadc->Instance->CR2, ADC_CR2_CAL))
 196:Drivers/STM32F1xx_HAL_Driver/Src/stm32f1xx_hal_adc_ex.c ****         {
 197:Drivers/STM32F1xx_HAL_Driver/Src/stm32f1xx_hal_adc_ex.c ****           /* Update ADC state machine to error */
 198:Drivers/STM32F1xx_HAL_Driver/Src/stm32f1xx_hal_adc_ex.c ****           ADC_STATE_CLR_SET(hadc->State,
 199:Drivers/STM32F1xx_HAL_Driver/Src/stm32f1xx_hal_adc_ex.c ****                             HAL_ADC_STATE_BUSY_INTERNAL,
 200:Drivers/STM32F1xx_HAL_Driver/Src/stm32f1xx_hal_adc_ex.c ****                             HAL_ADC_STATE_ERROR_INTERNAL);
 201:Drivers/STM32F1xx_HAL_Driver/Src/stm32f1xx_hal_adc_ex.c **** 
 202:Drivers/STM32F1xx_HAL_Driver/Src/stm32f1xx_hal_adc_ex.c ****           /* Process unlocked */
 203:Drivers/STM32F1xx_HAL_Driver/Src/stm32f1xx_hal_adc_ex.c ****           __HAL_UNLOCK(hadc);
 204:Drivers/STM32F1xx_HAL_Driver/Src/stm32f1xx_hal_adc_ex.c **** 
 205:Drivers/STM32F1xx_HAL_Driver/Src/stm32f1xx_hal_adc_ex.c ****           return HAL_ERROR;
 206:Drivers/STM32F1xx_HAL_Driver/Src/stm32f1xx_hal_adc_ex.c ****         }
 207:Drivers/STM32F1xx_HAL_Driver/Src/stm32f1xx_hal_adc_ex.c ****       }
 208:Drivers/STM32F1xx_HAL_Driver/Src/stm32f1xx_hal_adc_ex.c ****     }
 209:Drivers/STM32F1xx_HAL_Driver/Src/stm32f1xx_hal_adc_ex.c ****     
 210:Drivers/STM32F1xx_HAL_Driver/Src/stm32f1xx_hal_adc_ex.c ****     /* Set ADC state */
 211:Drivers/STM32F1xx_HAL_Driver/Src/stm32f1xx_hal_adc_ex.c ****     ADC_STATE_CLR_SET(hadc->State,
ARM GAS  /tmp/ccKo6yLr.s 			page 6


 212:Drivers/STM32F1xx_HAL_Driver/Src/stm32f1xx_hal_adc_ex.c ****                       HAL_ADC_STATE_BUSY_INTERNAL,
 213:Drivers/STM32F1xx_HAL_Driver/Src/stm32f1xx_hal_adc_ex.c ****                       HAL_ADC_STATE_READY);
 214:Drivers/STM32F1xx_HAL_Driver/Src/stm32f1xx_hal_adc_ex.c ****   }
 215:Drivers/STM32F1xx_HAL_Driver/Src/stm32f1xx_hal_adc_ex.c ****   
 216:Drivers/STM32F1xx_HAL_Driver/Src/stm32f1xx_hal_adc_ex.c ****   /* Process unlocked */
 217:Drivers/STM32F1xx_HAL_Driver/Src/stm32f1xx_hal_adc_ex.c ****   __HAL_UNLOCK(hadc);
  76              		.loc 1 217 3 is_stmt 1 view .LVU17
  77              		.loc 1 217 3 view .LVU18
  78 0026 0023     		movs	r3, #0
  79 0028 84F82430 		strb	r3, [r4, #36]
  80              		.loc 1 217 3 view .LVU19
 218:Drivers/STM32F1xx_HAL_Driver/Src/stm32f1xx_hal_adc_ex.c ****   
 219:Drivers/STM32F1xx_HAL_Driver/Src/stm32f1xx_hal_adc_ex.c ****   /* Return function status */
 220:Drivers/STM32F1xx_HAL_Driver/Src/stm32f1xx_hal_adc_ex.c ****   return tmp_hal_status;
  81              		.loc 1 220 3 view .LVU20
  82              	.LVL5:
  83              	.L2:
 221:Drivers/STM32F1xx_HAL_Driver/Src/stm32f1xx_hal_adc_ex.c **** }
  84              		.loc 1 221 1 is_stmt 0 view .LVU21
  85 002c 2846     		mov	r0, r5
  86 002e 02B0     		add	sp, sp, #8
  87              	.LCFI2:
  88              		.cfi_remember_state
  89              		.cfi_def_cfa_offset 16
  90              		@ sp needed
  91 0030 70BD     		pop	{r4, r5, r6, pc}
  92              	.LVL6:
  93              	.L12:
  94              	.LCFI3:
  95              		.cfi_restore_state
 142:Drivers/STM32F1xx_HAL_Driver/Src/stm32f1xx_hal_adc_ex.c ****                        HAL_ADC_STATE_REG_BUSY | HAL_ADC_STATE_INJ_BUSY,
  96              		.loc 1 142 6 is_stmt 1 view .LVU22
  97 0032 A36A     		ldr	r3, [r4, #40]
  98 0034 23F48853 		bic	r3, r3, #4352
  99 0038 23F00203 		bic	r3, r3, #2
 100 003c 43F00203 		orr	r3, r3, #2
 101 0040 A362     		str	r3, [r4, #40]
 149:Drivers/STM32F1xx_HAL_Driver/Src/stm32f1xx_hal_adc_ex.c ****                         / HAL_RCCEx_GetPeriphCLKFreq(RCC_PERIPHCLK_ADC))
 102              		.loc 1 149 5 view .LVU23
 150:Drivers/STM32F1xx_HAL_Driver/Src/stm32f1xx_hal_adc_ex.c ****                        * ADC_PRECALIBRATION_DELAY_ADCCLOCKCYCLES        );
 103              		.loc 1 150 25 is_stmt 0 view .LVU24
 104 0042 2E4B     		ldr	r3, .L15
 105 0044 1E68     		ldr	r6, [r3]
 150:Drivers/STM32F1xx_HAL_Driver/Src/stm32f1xx_hal_adc_ex.c ****                        * ADC_PRECALIBRATION_DELAY_ADCCLOCKCYCLES        );
 106              		.loc 1 150 27 view .LVU25
 107 0046 0220     		movs	r0, #2
 108              	.LVL7:
 150:Drivers/STM32F1xx_HAL_Driver/Src/stm32f1xx_hal_adc_ex.c ****                        * ADC_PRECALIBRATION_DELAY_ADCCLOCKCYCLES        );
 109              		.loc 1 150 27 view .LVU26
 110 0048 FFF7FEFF 		bl	HAL_RCCEx_GetPeriphCLKFreq
 111              	.LVL8:
 150:Drivers/STM32F1xx_HAL_Driver/Src/stm32f1xx_hal_adc_ex.c ****                        * ADC_PRECALIBRATION_DELAY_ADCCLOCKCYCLES        );
 112              		.loc 1 150 25 view .LVU27
 113 004c B6FBF0F6 		udiv	r6, r6, r0
 151:Drivers/STM32F1xx_HAL_Driver/Src/stm32f1xx_hal_adc_ex.c **** 
 114              		.loc 1 151 24 view .LVU28
 115 0050 7600     		lsls	r6, r6, #1
ARM GAS  /tmp/ccKo6yLr.s 			page 7


 149:Drivers/STM32F1xx_HAL_Driver/Src/stm32f1xx_hal_adc_ex.c ****                         / HAL_RCCEx_GetPeriphCLKFreq(RCC_PERIPHCLK_ADC))
 116              		.loc 1 149 21 view .LVU29
 117 0052 0196     		str	r6, [sp, #4]
 153:Drivers/STM32F1xx_HAL_Driver/Src/stm32f1xx_hal_adc_ex.c ****     {
 118              		.loc 1 153 5 is_stmt 1 view .LVU30
 153:Drivers/STM32F1xx_HAL_Driver/Src/stm32f1xx_hal_adc_ex.c ****     {
 119              		.loc 1 153 10 is_stmt 0 view .LVU31
 120 0054 02E0     		b	.L4
 121              	.L5:
 155:Drivers/STM32F1xx_HAL_Driver/Src/stm32f1xx_hal_adc_ex.c ****     }
 122              		.loc 1 155 7 is_stmt 1 view .LVU32
 155:Drivers/STM32F1xx_HAL_Driver/Src/stm32f1xx_hal_adc_ex.c ****     }
 123              		.loc 1 155 22 is_stmt 0 view .LVU33
 124 0056 019B     		ldr	r3, [sp, #4]
 125 0058 013B     		subs	r3, r3, #1
 126 005a 0193     		str	r3, [sp, #4]
 127              	.L4:
 153:Drivers/STM32F1xx_HAL_Driver/Src/stm32f1xx_hal_adc_ex.c ****     {
 128              		.loc 1 153 10 is_stmt 1 view .LVU34
 153:Drivers/STM32F1xx_HAL_Driver/Src/stm32f1xx_hal_adc_ex.c ****     {
 129              		.loc 1 153 27 is_stmt 0 view .LVU35
 130 005c 019B     		ldr	r3, [sp, #4]
 153:Drivers/STM32F1xx_HAL_Driver/Src/stm32f1xx_hal_adc_ex.c ****     {
 131              		.loc 1 153 10 view .LVU36
 132 005e 002B     		cmp	r3, #0
 133 0060 F9D1     		bne	.L5
 159:Drivers/STM32F1xx_HAL_Driver/Src/stm32f1xx_hal_adc_ex.c ****     
 134              		.loc 1 159 5 is_stmt 1 view .LVU37
 135 0062 2268     		ldr	r2, [r4]
 136 0064 9368     		ldr	r3, [r2, #8]
 137 0066 43F00803 		orr	r3, r3, #8
 138 006a 9360     		str	r3, [r2, #8]
 161:Drivers/STM32F1xx_HAL_Driver/Src/stm32f1xx_hal_adc_ex.c **** 
 139              		.loc 1 161 5 view .LVU38
 161:Drivers/STM32F1xx_HAL_Driver/Src/stm32f1xx_hal_adc_ex.c **** 
 140              		.loc 1 161 17 is_stmt 0 view .LVU39
 141 006c FFF7FEFF 		bl	HAL_GetTick
 142              	.LVL9:
 143 0070 0646     		mov	r6, r0
 144              	.LVL10:
 164:Drivers/STM32F1xx_HAL_Driver/Src/stm32f1xx_hal_adc_ex.c ****     {
 145              		.loc 1 164 5 is_stmt 1 view .LVU40
 146              	.L6:
 164:Drivers/STM32F1xx_HAL_Driver/Src/stm32f1xx_hal_adc_ex.c ****     {
 147              		.loc 1 164 10 view .LVU41
 164:Drivers/STM32F1xx_HAL_Driver/Src/stm32f1xx_hal_adc_ex.c ****     {
 148              		.loc 1 164 11 is_stmt 0 view .LVU42
 149 0072 2368     		ldr	r3, [r4]
 150 0074 9A68     		ldr	r2, [r3, #8]
 164:Drivers/STM32F1xx_HAL_Driver/Src/stm32f1xx_hal_adc_ex.c ****     {
 151              		.loc 1 164 10 view .LVU43
 152 0076 12F0080F 		tst	r2, #8
 153 007a 14D0     		beq	.L13
 166:Drivers/STM32F1xx_HAL_Driver/Src/stm32f1xx_hal_adc_ex.c ****       {
 154              		.loc 1 166 7 is_stmt 1 view .LVU44
 166:Drivers/STM32F1xx_HAL_Driver/Src/stm32f1xx_hal_adc_ex.c ****       {
 155              		.loc 1 166 11 is_stmt 0 view .LVU45
ARM GAS  /tmp/ccKo6yLr.s 			page 8


 156 007c FFF7FEFF 		bl	HAL_GetTick
 157              	.LVL11:
 166:Drivers/STM32F1xx_HAL_Driver/Src/stm32f1xx_hal_adc_ex.c ****       {
 158              		.loc 1 166 25 view .LVU46
 159 0080 801B     		subs	r0, r0, r6
 166:Drivers/STM32F1xx_HAL_Driver/Src/stm32f1xx_hal_adc_ex.c ****       {
 160              		.loc 1 166 9 view .LVU47
 161 0082 0A28     		cmp	r0, #10
 162 0084 F5D9     		bls	.L6
 169:Drivers/STM32F1xx_HAL_Driver/Src/stm32f1xx_hal_adc_ex.c ****         {
 163              		.loc 1 169 9 is_stmt 1 view .LVU48
 169:Drivers/STM32F1xx_HAL_Driver/Src/stm32f1xx_hal_adc_ex.c ****         {
 164              		.loc 1 169 12 is_stmt 0 view .LVU49
 165 0086 2368     		ldr	r3, [r4]
 166 0088 9B68     		ldr	r3, [r3, #8]
 169:Drivers/STM32F1xx_HAL_Driver/Src/stm32f1xx_hal_adc_ex.c ****         {
 167              		.loc 1 169 11 view .LVU50
 168 008a 13F0080F 		tst	r3, #8
 169 008e F0D0     		beq	.L6
 172:Drivers/STM32F1xx_HAL_Driver/Src/stm32f1xx_hal_adc_ex.c ****                             HAL_ADC_STATE_BUSY_INTERNAL,
 170              		.loc 1 172 11 is_stmt 1 view .LVU51
 171 0090 A36A     		ldr	r3, [r4, #40]
 172 0092 23F01203 		bic	r3, r3, #18
 173 0096 43F01003 		orr	r3, r3, #16
 174 009a A362     		str	r3, [r4, #40]
 177:Drivers/STM32F1xx_HAL_Driver/Src/stm32f1xx_hal_adc_ex.c **** 
 175              		.loc 1 177 11 view .LVU52
 177:Drivers/STM32F1xx_HAL_Driver/Src/stm32f1xx_hal_adc_ex.c **** 
 176              		.loc 1 177 11 view .LVU53
 177 009c 0023     		movs	r3, #0
 178 009e 84F82430 		strb	r3, [r4, #36]
 177:Drivers/STM32F1xx_HAL_Driver/Src/stm32f1xx_hal_adc_ex.c **** 
 179              		.loc 1 177 11 view .LVU54
 179:Drivers/STM32F1xx_HAL_Driver/Src/stm32f1xx_hal_adc_ex.c ****         }
 180              		.loc 1 179 11 view .LVU55
 179:Drivers/STM32F1xx_HAL_Driver/Src/stm32f1xx_hal_adc_ex.c ****         }
 181              		.loc 1 179 18 is_stmt 0 view .LVU56
 182 00a2 0125     		movs	r5, #1
 183 00a4 C2E7     		b	.L2
 184              	.L13:
 185:Drivers/STM32F1xx_HAL_Driver/Src/stm32f1xx_hal_adc_ex.c ****     
 185              		.loc 1 185 5 is_stmt 1 view .LVU57
 186 00a6 9A68     		ldr	r2, [r3, #8]
 187 00a8 42F00402 		orr	r2, r2, #4
 188 00ac 9A60     		str	r2, [r3, #8]
 187:Drivers/STM32F1xx_HAL_Driver/Src/stm32f1xx_hal_adc_ex.c **** 
 189              		.loc 1 187 5 view .LVU58
 187:Drivers/STM32F1xx_HAL_Driver/Src/stm32f1xx_hal_adc_ex.c **** 
 190              		.loc 1 187 17 is_stmt 0 view .LVU59
 191 00ae FFF7FEFF 		bl	HAL_GetTick
 192              	.LVL12:
 193 00b2 0646     		mov	r6, r0
 194              	.LVL13:
 190:Drivers/STM32F1xx_HAL_Driver/Src/stm32f1xx_hal_adc_ex.c ****     {
 195              		.loc 1 190 5 is_stmt 1 view .LVU60
 196              	.L8:
 190:Drivers/STM32F1xx_HAL_Driver/Src/stm32f1xx_hal_adc_ex.c ****     {
ARM GAS  /tmp/ccKo6yLr.s 			page 9


 197              		.loc 1 190 10 view .LVU61
 190:Drivers/STM32F1xx_HAL_Driver/Src/stm32f1xx_hal_adc_ex.c ****     {
 198              		.loc 1 190 11 is_stmt 0 view .LVU62
 199 00b4 2368     		ldr	r3, [r4]
 200 00b6 9B68     		ldr	r3, [r3, #8]
 190:Drivers/STM32F1xx_HAL_Driver/Src/stm32f1xx_hal_adc_ex.c ****     {
 201              		.loc 1 190 10 view .LVU63
 202 00b8 13F0040F 		tst	r3, #4
 203 00bc 14D0     		beq	.L14
 192:Drivers/STM32F1xx_HAL_Driver/Src/stm32f1xx_hal_adc_ex.c ****       {
 204              		.loc 1 192 7 is_stmt 1 view .LVU64
 192:Drivers/STM32F1xx_HAL_Driver/Src/stm32f1xx_hal_adc_ex.c ****       {
 205              		.loc 1 192 11 is_stmt 0 view .LVU65
 206 00be FFF7FEFF 		bl	HAL_GetTick
 207              	.LVL14:
 192:Drivers/STM32F1xx_HAL_Driver/Src/stm32f1xx_hal_adc_ex.c ****       {
 208              		.loc 1 192 25 view .LVU66
 209 00c2 801B     		subs	r0, r0, r6
 192:Drivers/STM32F1xx_HAL_Driver/Src/stm32f1xx_hal_adc_ex.c ****       {
 210              		.loc 1 192 9 view .LVU67
 211 00c4 0A28     		cmp	r0, #10
 212 00c6 F5D9     		bls	.L8
 195:Drivers/STM32F1xx_HAL_Driver/Src/stm32f1xx_hal_adc_ex.c ****         {
 213              		.loc 1 195 9 is_stmt 1 view .LVU68
 195:Drivers/STM32F1xx_HAL_Driver/Src/stm32f1xx_hal_adc_ex.c ****         {
 214              		.loc 1 195 12 is_stmt 0 view .LVU69
 215 00c8 2368     		ldr	r3, [r4]
 216 00ca 9B68     		ldr	r3, [r3, #8]
 195:Drivers/STM32F1xx_HAL_Driver/Src/stm32f1xx_hal_adc_ex.c ****         {
 217              		.loc 1 195 11 view .LVU70
 218 00cc 13F0040F 		tst	r3, #4
 219 00d0 F0D0     		beq	.L8
 198:Drivers/STM32F1xx_HAL_Driver/Src/stm32f1xx_hal_adc_ex.c ****                             HAL_ADC_STATE_BUSY_INTERNAL,
 220              		.loc 1 198 11 is_stmt 1 view .LVU71
 221 00d2 A36A     		ldr	r3, [r4, #40]
 222 00d4 23F01203 		bic	r3, r3, #18
 223 00d8 43F01003 		orr	r3, r3, #16
 224 00dc A362     		str	r3, [r4, #40]
 203:Drivers/STM32F1xx_HAL_Driver/Src/stm32f1xx_hal_adc_ex.c **** 
 225              		.loc 1 203 11 view .LVU72
 203:Drivers/STM32F1xx_HAL_Driver/Src/stm32f1xx_hal_adc_ex.c **** 
 226              		.loc 1 203 11 view .LVU73
 227 00de 0023     		movs	r3, #0
 228 00e0 84F82430 		strb	r3, [r4, #36]
 203:Drivers/STM32F1xx_HAL_Driver/Src/stm32f1xx_hal_adc_ex.c **** 
 229              		.loc 1 203 11 view .LVU74
 205:Drivers/STM32F1xx_HAL_Driver/Src/stm32f1xx_hal_adc_ex.c ****         }
 230              		.loc 1 205 11 view .LVU75
 205:Drivers/STM32F1xx_HAL_Driver/Src/stm32f1xx_hal_adc_ex.c ****         }
 231              		.loc 1 205 18 is_stmt 0 view .LVU76
 232 00e4 0125     		movs	r5, #1
 233 00e6 A1E7     		b	.L2
 234              	.L14:
 211:Drivers/STM32F1xx_HAL_Driver/Src/stm32f1xx_hal_adc_ex.c ****                       HAL_ADC_STATE_BUSY_INTERNAL,
 235              		.loc 1 211 5 is_stmt 1 view .LVU77
 236 00e8 A36A     		ldr	r3, [r4, #40]
 237 00ea 23F00303 		bic	r3, r3, #3
ARM GAS  /tmp/ccKo6yLr.s 			page 10


 238 00ee 43F00103 		orr	r3, r3, #1
 239 00f2 A362     		str	r3, [r4, #40]
 240 00f4 97E7     		b	.L3
 241              	.LVL15:
 242              	.L10:
 129:Drivers/STM32F1xx_HAL_Driver/Src/stm32f1xx_hal_adc_ex.c ****     
 243              		.loc 1 129 3 is_stmt 0 view .LVU78
 244 00f6 0225     		movs	r5, #2
 245 00f8 98E7     		b	.L2
 246              	.L16:
 247 00fa 00BF     		.align	2
 248              	.L15:
 249 00fc 00000000 		.word	SystemCoreClock
 250              		.cfi_endproc
 251              	.LFE65:
 253              		.section	.text.HAL_ADCEx_InjectedStart,"ax",%progbits
 254              		.align	1
 255              		.global	HAL_ADCEx_InjectedStart
 256              		.syntax unified
 257              		.thumb
 258              		.thumb_func
 259              		.fpu softvfp
 261              	HAL_ADCEx_InjectedStart:
 262              	.LVL16:
 263              	.LFB66:
 222:Drivers/STM32F1xx_HAL_Driver/Src/stm32f1xx_hal_adc_ex.c **** 
 223:Drivers/STM32F1xx_HAL_Driver/Src/stm32f1xx_hal_adc_ex.c **** /**
 224:Drivers/STM32F1xx_HAL_Driver/Src/stm32f1xx_hal_adc_ex.c ****   * @brief  Enables ADC, starts conversion of injected group.
 225:Drivers/STM32F1xx_HAL_Driver/Src/stm32f1xx_hal_adc_ex.c ****   *         Interruptions enabled in this function: None.
 226:Drivers/STM32F1xx_HAL_Driver/Src/stm32f1xx_hal_adc_ex.c ****   * @param  hadc: ADC handle
 227:Drivers/STM32F1xx_HAL_Driver/Src/stm32f1xx_hal_adc_ex.c ****   * @retval HAL status
 228:Drivers/STM32F1xx_HAL_Driver/Src/stm32f1xx_hal_adc_ex.c ****   */
 229:Drivers/STM32F1xx_HAL_Driver/Src/stm32f1xx_hal_adc_ex.c **** HAL_StatusTypeDef HAL_ADCEx_InjectedStart(ADC_HandleTypeDef* hadc)
 230:Drivers/STM32F1xx_HAL_Driver/Src/stm32f1xx_hal_adc_ex.c **** {
 264              		.loc 1 230 1 is_stmt 1 view -0
 265              		.cfi_startproc
 266              		@ args = 0, pretend = 0, frame = 0
 267              		@ frame_needed = 0, uses_anonymous_args = 0
 231:Drivers/STM32F1xx_HAL_Driver/Src/stm32f1xx_hal_adc_ex.c ****   HAL_StatusTypeDef tmp_hal_status = HAL_OK;
 268              		.loc 1 231 3 view .LVU80
 232:Drivers/STM32F1xx_HAL_Driver/Src/stm32f1xx_hal_adc_ex.c ****   
 233:Drivers/STM32F1xx_HAL_Driver/Src/stm32f1xx_hal_adc_ex.c ****   /* Check the parameters */
 234:Drivers/STM32F1xx_HAL_Driver/Src/stm32f1xx_hal_adc_ex.c ****   assert_param(IS_ADC_ALL_INSTANCE(hadc->Instance));
 269              		.loc 1 234 3 view .LVU81
 235:Drivers/STM32F1xx_HAL_Driver/Src/stm32f1xx_hal_adc_ex.c ****   
 236:Drivers/STM32F1xx_HAL_Driver/Src/stm32f1xx_hal_adc_ex.c ****   /* Process locked */
 237:Drivers/STM32F1xx_HAL_Driver/Src/stm32f1xx_hal_adc_ex.c ****   __HAL_LOCK(hadc);
 270              		.loc 1 237 3 view .LVU82
 271              		.loc 1 237 3 view .LVU83
 272 0000 90F82430 		ldrb	r3, [r0, #36]	@ zero_extendqisi2
 273 0004 012B     		cmp	r3, #1
 274 0006 52D0     		beq	.L26
 230:Drivers/STM32F1xx_HAL_Driver/Src/stm32f1xx_hal_adc_ex.c ****   HAL_StatusTypeDef tmp_hal_status = HAL_OK;
 275              		.loc 1 230 1 is_stmt 0 discriminator 2 view .LVU84
 276 0008 10B5     		push	{r4, lr}
 277              	.LCFI4:
 278              		.cfi_def_cfa_offset 8
ARM GAS  /tmp/ccKo6yLr.s 			page 11


 279              		.cfi_offset 4, -8
 280              		.cfi_offset 14, -4
 281 000a 0446     		mov	r4, r0
 282              		.loc 1 237 3 is_stmt 1 discriminator 2 view .LVU85
 283 000c 0123     		movs	r3, #1
 284 000e 80F82430 		strb	r3, [r0, #36]
 285              		.loc 1 237 3 discriminator 2 view .LVU86
 238:Drivers/STM32F1xx_HAL_Driver/Src/stm32f1xx_hal_adc_ex.c ****     
 239:Drivers/STM32F1xx_HAL_Driver/Src/stm32f1xx_hal_adc_ex.c ****   /* Enable the ADC peripheral */
 240:Drivers/STM32F1xx_HAL_Driver/Src/stm32f1xx_hal_adc_ex.c ****   tmp_hal_status = ADC_Enable(hadc);
 286              		.loc 1 240 3 discriminator 2 view .LVU87
 287              		.loc 1 240 20 is_stmt 0 discriminator 2 view .LVU88
 288 0012 FFF7FEFF 		bl	ADC_Enable
 289              	.LVL17:
 241:Drivers/STM32F1xx_HAL_Driver/Src/stm32f1xx_hal_adc_ex.c ****   
 242:Drivers/STM32F1xx_HAL_Driver/Src/stm32f1xx_hal_adc_ex.c ****   /* Start conversion if ADC is effectively enabled */
 243:Drivers/STM32F1xx_HAL_Driver/Src/stm32f1xx_hal_adc_ex.c ****   if (tmp_hal_status == HAL_OK)
 290              		.loc 1 243 3 is_stmt 1 discriminator 2 view .LVU89
 291              		.loc 1 243 6 is_stmt 0 discriminator 2 view .LVU90
 292 0016 0028     		cmp	r0, #0
 293 0018 45D1     		bne	.L19
 244:Drivers/STM32F1xx_HAL_Driver/Src/stm32f1xx_hal_adc_ex.c ****   {
 245:Drivers/STM32F1xx_HAL_Driver/Src/stm32f1xx_hal_adc_ex.c ****     /* Set ADC state                                                          */
 246:Drivers/STM32F1xx_HAL_Driver/Src/stm32f1xx_hal_adc_ex.c ****     /* - Clear state bitfield related to injected group conversion results    */
 247:Drivers/STM32F1xx_HAL_Driver/Src/stm32f1xx_hal_adc_ex.c ****     /* - Set state bitfield related to injected operation                     */
 248:Drivers/STM32F1xx_HAL_Driver/Src/stm32f1xx_hal_adc_ex.c ****     ADC_STATE_CLR_SET(hadc->State,
 294              		.loc 1 248 5 is_stmt 1 view .LVU91
 295 001a A36A     		ldr	r3, [r4, #40]
 296 001c 23F44053 		bic	r3, r3, #12288
 297 0020 23F00103 		bic	r3, r3, #1
 298 0024 43F48053 		orr	r3, r3, #4096
 299 0028 A362     		str	r3, [r4, #40]
 249:Drivers/STM32F1xx_HAL_Driver/Src/stm32f1xx_hal_adc_ex.c ****                       HAL_ADC_STATE_READY | HAL_ADC_STATE_INJ_EOC,
 250:Drivers/STM32F1xx_HAL_Driver/Src/stm32f1xx_hal_adc_ex.c ****                       HAL_ADC_STATE_INJ_BUSY);
 251:Drivers/STM32F1xx_HAL_Driver/Src/stm32f1xx_hal_adc_ex.c ****     
 252:Drivers/STM32F1xx_HAL_Driver/Src/stm32f1xx_hal_adc_ex.c ****     /* Case of independent mode or multimode (for devices with several ADCs): */
 253:Drivers/STM32F1xx_HAL_Driver/Src/stm32f1xx_hal_adc_ex.c ****     /* Set multimode state.                                                   */
 254:Drivers/STM32F1xx_HAL_Driver/Src/stm32f1xx_hal_adc_ex.c ****     if (ADC_NONMULTIMODE_OR_MULTIMODEMASTER(hadc))
 300              		.loc 1 254 5 view .LVU92
 301              		.loc 1 254 9 is_stmt 0 view .LVU93
 302 002a 2268     		ldr	r2, [r4]
 303              		.loc 1 254 8 view .LVU94
 304 002c 214B     		ldr	r3, .L34
 305 002e 9A42     		cmp	r2, r3
 306 0030 1FD0     		beq	.L31
 307              	.L20:
 255:Drivers/STM32F1xx_HAL_Driver/Src/stm32f1xx_hal_adc_ex.c ****     {
 256:Drivers/STM32F1xx_HAL_Driver/Src/stm32f1xx_hal_adc_ex.c ****       CLEAR_BIT(hadc->State, HAL_ADC_STATE_MULTIMODE_SLAVE);
 308              		.loc 1 256 7 is_stmt 1 view .LVU95
 309 0032 A36A     		ldr	r3, [r4, #40]
 310 0034 23F48013 		bic	r3, r3, #1048576
 311 0038 A362     		str	r3, [r4, #40]
 312              	.L22:
 257:Drivers/STM32F1xx_HAL_Driver/Src/stm32f1xx_hal_adc_ex.c ****     }
 258:Drivers/STM32F1xx_HAL_Driver/Src/stm32f1xx_hal_adc_ex.c ****     else
 259:Drivers/STM32F1xx_HAL_Driver/Src/stm32f1xx_hal_adc_ex.c ****     {
 260:Drivers/STM32F1xx_HAL_Driver/Src/stm32f1xx_hal_adc_ex.c ****       SET_BIT(hadc->State, HAL_ADC_STATE_MULTIMODE_SLAVE);
ARM GAS  /tmp/ccKo6yLr.s 			page 12


 261:Drivers/STM32F1xx_HAL_Driver/Src/stm32f1xx_hal_adc_ex.c ****     }
 262:Drivers/STM32F1xx_HAL_Driver/Src/stm32f1xx_hal_adc_ex.c ****     
 263:Drivers/STM32F1xx_HAL_Driver/Src/stm32f1xx_hal_adc_ex.c ****     /* Check if a regular conversion is ongoing */
 264:Drivers/STM32F1xx_HAL_Driver/Src/stm32f1xx_hal_adc_ex.c ****     /* Note: On this device, there is no ADC error code fields related to     */
 265:Drivers/STM32F1xx_HAL_Driver/Src/stm32f1xx_hal_adc_ex.c ****     /*       conversions on group injected only. In case of conversion on     */
 266:Drivers/STM32F1xx_HAL_Driver/Src/stm32f1xx_hal_adc_ex.c ****     /*       going on group regular, no error code is reset.                  */
 267:Drivers/STM32F1xx_HAL_Driver/Src/stm32f1xx_hal_adc_ex.c ****     if (HAL_IS_BIT_CLR(hadc->State, HAL_ADC_STATE_REG_BUSY))
 313              		.loc 1 267 5 view .LVU96
 314              		.loc 1 267 9 is_stmt 0 view .LVU97
 315 003a A36A     		ldr	r3, [r4, #40]
 316              		.loc 1 267 8 view .LVU98
 317 003c 13F4807F 		tst	r3, #256
 318 0040 01D1     		bne	.L23
 268:Drivers/STM32F1xx_HAL_Driver/Src/stm32f1xx_hal_adc_ex.c ****     {
 269:Drivers/STM32F1xx_HAL_Driver/Src/stm32f1xx_hal_adc_ex.c ****       /* Reset ADC all error code fields */
 270:Drivers/STM32F1xx_HAL_Driver/Src/stm32f1xx_hal_adc_ex.c ****       ADC_CLEAR_ERRORCODE(hadc);
 319              		.loc 1 270 7 is_stmt 1 view .LVU99
 320 0042 0023     		movs	r3, #0
 321 0044 E362     		str	r3, [r4, #44]
 322              	.L23:
 271:Drivers/STM32F1xx_HAL_Driver/Src/stm32f1xx_hal_adc_ex.c ****     }
 272:Drivers/STM32F1xx_HAL_Driver/Src/stm32f1xx_hal_adc_ex.c ****     
 273:Drivers/STM32F1xx_HAL_Driver/Src/stm32f1xx_hal_adc_ex.c ****     /* Process unlocked */
 274:Drivers/STM32F1xx_HAL_Driver/Src/stm32f1xx_hal_adc_ex.c ****     /* Unlock before starting ADC conversions: in case of potential           */
 275:Drivers/STM32F1xx_HAL_Driver/Src/stm32f1xx_hal_adc_ex.c ****     /* interruption, to let the process to ADC IRQ Handler.                   */
 276:Drivers/STM32F1xx_HAL_Driver/Src/stm32f1xx_hal_adc_ex.c ****     __HAL_UNLOCK(hadc);
 323              		.loc 1 276 5 view .LVU100
 324              		.loc 1 276 5 view .LVU101
 325 0046 0023     		movs	r3, #0
 326 0048 84F82430 		strb	r3, [r4, #36]
 327              		.loc 1 276 5 view .LVU102
 277:Drivers/STM32F1xx_HAL_Driver/Src/stm32f1xx_hal_adc_ex.c ****     
 278:Drivers/STM32F1xx_HAL_Driver/Src/stm32f1xx_hal_adc_ex.c ****     /* Clear injected group conversion flag */
 279:Drivers/STM32F1xx_HAL_Driver/Src/stm32f1xx_hal_adc_ex.c ****     /* (To ensure of no unknown state from potential previous ADC operations) */
 280:Drivers/STM32F1xx_HAL_Driver/Src/stm32f1xx_hal_adc_ex.c ****     __HAL_ADC_CLEAR_FLAG(hadc, ADC_FLAG_JEOC);
 328              		.loc 1 280 5 view .LVU103
 329 004c 6FF00403 		mvn	r3, #4
 330 0050 1360     		str	r3, [r2]
 281:Drivers/STM32F1xx_HAL_Driver/Src/stm32f1xx_hal_adc_ex.c ****         
 282:Drivers/STM32F1xx_HAL_Driver/Src/stm32f1xx_hal_adc_ex.c ****     /* Enable conversion of injected group.                                   */
 283:Drivers/STM32F1xx_HAL_Driver/Src/stm32f1xx_hal_adc_ex.c ****     /* If software start has been selected, conversion starts immediately.    */
 284:Drivers/STM32F1xx_HAL_Driver/Src/stm32f1xx_hal_adc_ex.c ****     /* If external trigger has been selected, conversion will start at next   */
 285:Drivers/STM32F1xx_HAL_Driver/Src/stm32f1xx_hal_adc_ex.c ****     /* trigger event.                                                         */
 286:Drivers/STM32F1xx_HAL_Driver/Src/stm32f1xx_hal_adc_ex.c ****     /* If automatic injected conversion is enabled, conversion will start     */
 287:Drivers/STM32F1xx_HAL_Driver/Src/stm32f1xx_hal_adc_ex.c ****     /* after next regular group conversion.                                   */
 288:Drivers/STM32F1xx_HAL_Driver/Src/stm32f1xx_hal_adc_ex.c ****     /* Case of multimode enabled (for devices with several ADCs): if ADC is   */
 289:Drivers/STM32F1xx_HAL_Driver/Src/stm32f1xx_hal_adc_ex.c ****     /* slave, ADC is enabled only (conversion is not started). If ADC is      */
 290:Drivers/STM32F1xx_HAL_Driver/Src/stm32f1xx_hal_adc_ex.c ****     /* master, ADC is enabled and conversion is started.                      */
 291:Drivers/STM32F1xx_HAL_Driver/Src/stm32f1xx_hal_adc_ex.c ****     if (HAL_IS_BIT_CLR(hadc->Instance->CR1, ADC_CR1_JAUTO))
 331              		.loc 1 291 5 view .LVU104
 332              		.loc 1 291 9 is_stmt 0 view .LVU105
 333 0052 2368     		ldr	r3, [r4]
 334 0054 5A68     		ldr	r2, [r3, #4]
 335              		.loc 1 291 8 view .LVU106
 336 0056 12F4806F 		tst	r2, #1024
 337 005a 27D1     		bne	.L18
 292:Drivers/STM32F1xx_HAL_Driver/Src/stm32f1xx_hal_adc_ex.c ****     {
ARM GAS  /tmp/ccKo6yLr.s 			page 13


 293:Drivers/STM32F1xx_HAL_Driver/Src/stm32f1xx_hal_adc_ex.c ****       if (ADC_IS_SOFTWARE_START_INJECTED(hadc)     &&
 338              		.loc 1 293 7 is_stmt 1 view .LVU107
 339              		.loc 1 293 11 is_stmt 0 view .LVU108
 340 005c 9A68     		ldr	r2, [r3, #8]
 341 005e 02F4E042 		and	r2, r2, #28672
 342              		.loc 1 293 10 view .LVU109
 343 0062 B2F5E04F 		cmp	r2, #28672
 344 0066 0FD0     		beq	.L32
 345              	.L24:
 294:Drivers/STM32F1xx_HAL_Driver/Src/stm32f1xx_hal_adc_ex.c ****           ADC_NONMULTIMODE_OR_MULTIMODEMASTER(hadc)  )
 295:Drivers/STM32F1xx_HAL_Driver/Src/stm32f1xx_hal_adc_ex.c ****       {
 296:Drivers/STM32F1xx_HAL_Driver/Src/stm32f1xx_hal_adc_ex.c ****         /* Start ADC conversion on injected group with SW start */
 297:Drivers/STM32F1xx_HAL_Driver/Src/stm32f1xx_hal_adc_ex.c ****         SET_BIT(hadc->Instance->CR2, (ADC_CR2_JSWSTART | ADC_CR2_JEXTTRIG));
 298:Drivers/STM32F1xx_HAL_Driver/Src/stm32f1xx_hal_adc_ex.c ****       }
 299:Drivers/STM32F1xx_HAL_Driver/Src/stm32f1xx_hal_adc_ex.c ****       else
 300:Drivers/STM32F1xx_HAL_Driver/Src/stm32f1xx_hal_adc_ex.c ****       {
 301:Drivers/STM32F1xx_HAL_Driver/Src/stm32f1xx_hal_adc_ex.c ****         /* Start ADC conversion on injected group with external trigger */
 302:Drivers/STM32F1xx_HAL_Driver/Src/stm32f1xx_hal_adc_ex.c ****         SET_BIT(hadc->Instance->CR2, ADC_CR2_JEXTTRIG);
 346              		.loc 1 302 9 is_stmt 1 view .LVU110
 347 0068 9A68     		ldr	r2, [r3, #8]
 348 006a 42F40042 		orr	r2, r2, #32768
 349 006e 9A60     		str	r2, [r3, #8]
 350 0070 1CE0     		b	.L18
 351              	.L31:
 254:Drivers/STM32F1xx_HAL_Driver/Src/stm32f1xx_hal_adc_ex.c ****     {
 352              		.loc 1 254 9 is_stmt 0 discriminator 1 view .LVU111
 353 0072 A3F58063 		sub	r3, r3, #1024
 354 0076 5B68     		ldr	r3, [r3, #4]
 355 0078 13F4702F 		tst	r3, #983040
 356 007c D9D0     		beq	.L20
 260:Drivers/STM32F1xx_HAL_Driver/Src/stm32f1xx_hal_adc_ex.c ****     }
 357              		.loc 1 260 7 is_stmt 1 view .LVU112
 358 007e A36A     		ldr	r3, [r4, #40]
 359 0080 43F48013 		orr	r3, r3, #1048576
 360 0084 A362     		str	r3, [r4, #40]
 361 0086 D8E7     		b	.L22
 362              	.L32:
 293:Drivers/STM32F1xx_HAL_Driver/Src/stm32f1xx_hal_adc_ex.c ****           ADC_NONMULTIMODE_OR_MULTIMODEMASTER(hadc)  )
 363              		.loc 1 293 52 is_stmt 0 discriminator 1 view .LVU113
 364 0088 0A4A     		ldr	r2, .L34
 365 008a 9342     		cmp	r3, r2
 366 008c 04D0     		beq	.L33
 367              	.L25:
 297:Drivers/STM32F1xx_HAL_Driver/Src/stm32f1xx_hal_adc_ex.c ****       }
 368              		.loc 1 297 9 is_stmt 1 view .LVU114
 369 008e 9A68     		ldr	r2, [r3, #8]
 370 0090 42F40212 		orr	r2, r2, #2129920
 371 0094 9A60     		str	r2, [r3, #8]
 372 0096 09E0     		b	.L18
 373              	.L33:
 294:Drivers/STM32F1xx_HAL_Driver/Src/stm32f1xx_hal_adc_ex.c ****       {
 374              		.loc 1 294 11 is_stmt 0 discriminator 2 view .LVU115
 375 0098 A2F58062 		sub	r2, r2, #1024
 376 009c 5268     		ldr	r2, [r2, #4]
 293:Drivers/STM32F1xx_HAL_Driver/Src/stm32f1xx_hal_adc_ex.c ****           ADC_NONMULTIMODE_OR_MULTIMODEMASTER(hadc)  )
 377              		.loc 1 293 52 discriminator 2 view .LVU116
 378 009e 12F4702F 		tst	r2, #983040
ARM GAS  /tmp/ccKo6yLr.s 			page 14


 379 00a2 E1D1     		bne	.L24
 380 00a4 F3E7     		b	.L25
 381              	.L19:
 303:Drivers/STM32F1xx_HAL_Driver/Src/stm32f1xx_hal_adc_ex.c ****       }
 304:Drivers/STM32F1xx_HAL_Driver/Src/stm32f1xx_hal_adc_ex.c ****     }
 305:Drivers/STM32F1xx_HAL_Driver/Src/stm32f1xx_hal_adc_ex.c ****   }
 306:Drivers/STM32F1xx_HAL_Driver/Src/stm32f1xx_hal_adc_ex.c ****   else
 307:Drivers/STM32F1xx_HAL_Driver/Src/stm32f1xx_hal_adc_ex.c ****   {
 308:Drivers/STM32F1xx_HAL_Driver/Src/stm32f1xx_hal_adc_ex.c ****     /* Process unlocked */
 309:Drivers/STM32F1xx_HAL_Driver/Src/stm32f1xx_hal_adc_ex.c ****     __HAL_UNLOCK(hadc);
 382              		.loc 1 309 5 is_stmt 1 view .LVU117
 383              		.loc 1 309 5 view .LVU118
 384 00a6 0023     		movs	r3, #0
 385 00a8 84F82430 		strb	r3, [r4, #36]
 386              	.L18:
 310:Drivers/STM32F1xx_HAL_Driver/Src/stm32f1xx_hal_adc_ex.c ****   }
 311:Drivers/STM32F1xx_HAL_Driver/Src/stm32f1xx_hal_adc_ex.c ****   
 312:Drivers/STM32F1xx_HAL_Driver/Src/stm32f1xx_hal_adc_ex.c ****   /* Return function status */
 313:Drivers/STM32F1xx_HAL_Driver/Src/stm32f1xx_hal_adc_ex.c ****   return tmp_hal_status;
 314:Drivers/STM32F1xx_HAL_Driver/Src/stm32f1xx_hal_adc_ex.c **** }
 387              		.loc 1 314 1 is_stmt 0 view .LVU119
 388 00ac 10BD     		pop	{r4, pc}
 389              	.LVL18:
 390              	.L26:
 391              	.LCFI5:
 392              		.cfi_def_cfa_offset 0
 393              		.cfi_restore 4
 394              		.cfi_restore 14
 237:Drivers/STM32F1xx_HAL_Driver/Src/stm32f1xx_hal_adc_ex.c ****     
 395              		.loc 1 237 3 view .LVU120
 396 00ae 0220     		movs	r0, #2
 397              	.LVL19:
 398              		.loc 1 314 1 view .LVU121
 399 00b0 7047     		bx	lr
 400              	.L35:
 401 00b2 00BF     		.align	2
 402              	.L34:
 403 00b4 00280140 		.word	1073817600
 404              		.cfi_endproc
 405              	.LFE66:
 407              		.section	.text.HAL_ADCEx_InjectedStop,"ax",%progbits
 408              		.align	1
 409              		.global	HAL_ADCEx_InjectedStop
 410              		.syntax unified
 411              		.thumb
 412              		.thumb_func
 413              		.fpu softvfp
 415              	HAL_ADCEx_InjectedStop:
 416              	.LVL20:
 417              	.LFB67:
 315:Drivers/STM32F1xx_HAL_Driver/Src/stm32f1xx_hal_adc_ex.c **** 
 316:Drivers/STM32F1xx_HAL_Driver/Src/stm32f1xx_hal_adc_ex.c **** /**
 317:Drivers/STM32F1xx_HAL_Driver/Src/stm32f1xx_hal_adc_ex.c ****   * @brief  Stop conversion of injected channels. Disable ADC peripheral if
 318:Drivers/STM32F1xx_HAL_Driver/Src/stm32f1xx_hal_adc_ex.c ****   *         no regular conversion is on going.
 319:Drivers/STM32F1xx_HAL_Driver/Src/stm32f1xx_hal_adc_ex.c ****   * @note   If ADC must be disabled and if conversion is on going on 
 320:Drivers/STM32F1xx_HAL_Driver/Src/stm32f1xx_hal_adc_ex.c ****   *         regular group, function HAL_ADC_Stop must be used to stop both
 321:Drivers/STM32F1xx_HAL_Driver/Src/stm32f1xx_hal_adc_ex.c ****   *         injected and regular groups, and disable the ADC.
ARM GAS  /tmp/ccKo6yLr.s 			page 15


 322:Drivers/STM32F1xx_HAL_Driver/Src/stm32f1xx_hal_adc_ex.c ****   * @note   If injected group mode auto-injection is enabled,
 323:Drivers/STM32F1xx_HAL_Driver/Src/stm32f1xx_hal_adc_ex.c ****   *         function HAL_ADC_Stop must be used.
 324:Drivers/STM32F1xx_HAL_Driver/Src/stm32f1xx_hal_adc_ex.c ****   * @note   In case of auto-injection mode, HAL_ADC_Stop must be used.
 325:Drivers/STM32F1xx_HAL_Driver/Src/stm32f1xx_hal_adc_ex.c ****   * @param  hadc: ADC handle
 326:Drivers/STM32F1xx_HAL_Driver/Src/stm32f1xx_hal_adc_ex.c ****   * @retval None
 327:Drivers/STM32F1xx_HAL_Driver/Src/stm32f1xx_hal_adc_ex.c ****   */
 328:Drivers/STM32F1xx_HAL_Driver/Src/stm32f1xx_hal_adc_ex.c **** HAL_StatusTypeDef HAL_ADCEx_InjectedStop(ADC_HandleTypeDef* hadc)
 329:Drivers/STM32F1xx_HAL_Driver/Src/stm32f1xx_hal_adc_ex.c **** {
 418              		.loc 1 329 1 is_stmt 1 view -0
 419              		.cfi_startproc
 420              		@ args = 0, pretend = 0, frame = 0
 421              		@ frame_needed = 0, uses_anonymous_args = 0
 330:Drivers/STM32F1xx_HAL_Driver/Src/stm32f1xx_hal_adc_ex.c ****   HAL_StatusTypeDef tmp_hal_status = HAL_OK;
 422              		.loc 1 330 3 view .LVU123
 331:Drivers/STM32F1xx_HAL_Driver/Src/stm32f1xx_hal_adc_ex.c ****   
 332:Drivers/STM32F1xx_HAL_Driver/Src/stm32f1xx_hal_adc_ex.c ****   /* Check the parameters */
 333:Drivers/STM32F1xx_HAL_Driver/Src/stm32f1xx_hal_adc_ex.c ****   assert_param(IS_ADC_ALL_INSTANCE(hadc->Instance));
 423              		.loc 1 333 3 view .LVU124
 334:Drivers/STM32F1xx_HAL_Driver/Src/stm32f1xx_hal_adc_ex.c **** 
 335:Drivers/STM32F1xx_HAL_Driver/Src/stm32f1xx_hal_adc_ex.c ****   /* Process locked */
 336:Drivers/STM32F1xx_HAL_Driver/Src/stm32f1xx_hal_adc_ex.c ****   __HAL_LOCK(hadc);
 424              		.loc 1 336 3 view .LVU125
 425              		.loc 1 336 3 view .LVU126
 426 0000 90F82430 		ldrb	r3, [r0, #36]	@ zero_extendqisi2
 427 0004 012B     		cmp	r3, #1
 428 0006 23D0     		beq	.L40
 329:Drivers/STM32F1xx_HAL_Driver/Src/stm32f1xx_hal_adc_ex.c ****   HAL_StatusTypeDef tmp_hal_status = HAL_OK;
 429              		.loc 1 329 1 is_stmt 0 discriminator 2 view .LVU127
 430 0008 10B5     		push	{r4, lr}
 431              	.LCFI6:
 432              		.cfi_def_cfa_offset 8
 433              		.cfi_offset 4, -8
 434              		.cfi_offset 14, -4
 435 000a 0446     		mov	r4, r0
 436              		.loc 1 336 3 is_stmt 1 discriminator 2 view .LVU128
 437 000c 0123     		movs	r3, #1
 438 000e 80F82430 		strb	r3, [r0, #36]
 439              		.loc 1 336 3 discriminator 2 view .LVU129
 337:Drivers/STM32F1xx_HAL_Driver/Src/stm32f1xx_hal_adc_ex.c ****     
 338:Drivers/STM32F1xx_HAL_Driver/Src/stm32f1xx_hal_adc_ex.c ****   /* Stop potential conversion and disable ADC peripheral                     */
 339:Drivers/STM32F1xx_HAL_Driver/Src/stm32f1xx_hal_adc_ex.c ****   /* Conditioned to:                                                          */
 340:Drivers/STM32F1xx_HAL_Driver/Src/stm32f1xx_hal_adc_ex.c ****   /* - No conversion on the other group (regular group) is intended to        */
 341:Drivers/STM32F1xx_HAL_Driver/Src/stm32f1xx_hal_adc_ex.c ****   /*   continue (injected and regular groups stop conversion and ADC disable  */
 342:Drivers/STM32F1xx_HAL_Driver/Src/stm32f1xx_hal_adc_ex.c ****   /*   are common)                                                            */
 343:Drivers/STM32F1xx_HAL_Driver/Src/stm32f1xx_hal_adc_ex.c ****   /* - In case of auto-injection mode, HAL_ADC_Stop must be used.             */
 344:Drivers/STM32F1xx_HAL_Driver/Src/stm32f1xx_hal_adc_ex.c ****   if(((hadc->State & HAL_ADC_STATE_REG_BUSY) == RESET)  &&
 440              		.loc 1 344 3 discriminator 2 view .LVU130
 441              		.loc 1 344 12 is_stmt 0 discriminator 2 view .LVU131
 442 0012 836A     		ldr	r3, [r0, #40]
 443              		.loc 1 344 5 discriminator 2 view .LVU132
 444 0014 13F4807F 		tst	r3, #256
 445 0018 04D1     		bne	.L38
 345:Drivers/STM32F1xx_HAL_Driver/Src/stm32f1xx_hal_adc_ex.c ****      HAL_IS_BIT_CLR(hadc->Instance->CR1, ADC_CR1_JAUTO)   )
 446              		.loc 1 345 6 discriminator 1 view .LVU133
 447 001a 0368     		ldr	r3, [r0]
 448 001c 5B68     		ldr	r3, [r3, #4]
 344:Drivers/STM32F1xx_HAL_Driver/Src/stm32f1xx_hal_adc_ex.c ****      HAL_IS_BIT_CLR(hadc->Instance->CR1, ADC_CR1_JAUTO)   )
ARM GAS  /tmp/ccKo6yLr.s 			page 16


 449              		.loc 1 344 57 discriminator 1 view .LVU134
 450 001e 13F4806F 		tst	r3, #1024
 451 0022 08D0     		beq	.L45
 452              	.L38:
 346:Drivers/STM32F1xx_HAL_Driver/Src/stm32f1xx_hal_adc_ex.c ****   {
 347:Drivers/STM32F1xx_HAL_Driver/Src/stm32f1xx_hal_adc_ex.c ****     /* Stop potential conversion on going, on regular and injected groups */
 348:Drivers/STM32F1xx_HAL_Driver/Src/stm32f1xx_hal_adc_ex.c ****     /* Disable ADC peripheral */
 349:Drivers/STM32F1xx_HAL_Driver/Src/stm32f1xx_hal_adc_ex.c ****     tmp_hal_status = ADC_ConversionStop_Disable(hadc);
 350:Drivers/STM32F1xx_HAL_Driver/Src/stm32f1xx_hal_adc_ex.c ****     
 351:Drivers/STM32F1xx_HAL_Driver/Src/stm32f1xx_hal_adc_ex.c ****     /* Check if ADC is effectively disabled */
 352:Drivers/STM32F1xx_HAL_Driver/Src/stm32f1xx_hal_adc_ex.c ****     if (tmp_hal_status == HAL_OK)
 353:Drivers/STM32F1xx_HAL_Driver/Src/stm32f1xx_hal_adc_ex.c ****     {
 354:Drivers/STM32F1xx_HAL_Driver/Src/stm32f1xx_hal_adc_ex.c ****       /* Set ADC state */
 355:Drivers/STM32F1xx_HAL_Driver/Src/stm32f1xx_hal_adc_ex.c ****       ADC_STATE_CLR_SET(hadc->State,
 356:Drivers/STM32F1xx_HAL_Driver/Src/stm32f1xx_hal_adc_ex.c ****                         HAL_ADC_STATE_REG_BUSY | HAL_ADC_STATE_INJ_BUSY,
 357:Drivers/STM32F1xx_HAL_Driver/Src/stm32f1xx_hal_adc_ex.c ****                         HAL_ADC_STATE_READY);
 358:Drivers/STM32F1xx_HAL_Driver/Src/stm32f1xx_hal_adc_ex.c ****     }
 359:Drivers/STM32F1xx_HAL_Driver/Src/stm32f1xx_hal_adc_ex.c ****   }
 360:Drivers/STM32F1xx_HAL_Driver/Src/stm32f1xx_hal_adc_ex.c ****   else
 361:Drivers/STM32F1xx_HAL_Driver/Src/stm32f1xx_hal_adc_ex.c ****   {
 362:Drivers/STM32F1xx_HAL_Driver/Src/stm32f1xx_hal_adc_ex.c ****     /* Update ADC state machine to error */
 363:Drivers/STM32F1xx_HAL_Driver/Src/stm32f1xx_hal_adc_ex.c ****     SET_BIT(hadc->State, HAL_ADC_STATE_ERROR_CONFIG);
 453              		.loc 1 363 5 is_stmt 1 view .LVU135
 454 0024 A36A     		ldr	r3, [r4, #40]
 455 0026 43F02003 		orr	r3, r3, #32
 456 002a A362     		str	r3, [r4, #40]
 364:Drivers/STM32F1xx_HAL_Driver/Src/stm32f1xx_hal_adc_ex.c ****       
 365:Drivers/STM32F1xx_HAL_Driver/Src/stm32f1xx_hal_adc_ex.c ****     tmp_hal_status = HAL_ERROR;
 457              		.loc 1 365 5 view .LVU136
 458              	.LVL21:
 459              		.loc 1 365 20 is_stmt 0 view .LVU137
 460 002c 0120     		movs	r0, #1
 461              	.LVL22:
 462              	.L39:
 366:Drivers/STM32F1xx_HAL_Driver/Src/stm32f1xx_hal_adc_ex.c ****   }
 367:Drivers/STM32F1xx_HAL_Driver/Src/stm32f1xx_hal_adc_ex.c ****   
 368:Drivers/STM32F1xx_HAL_Driver/Src/stm32f1xx_hal_adc_ex.c ****   /* Process unlocked */
 369:Drivers/STM32F1xx_HAL_Driver/Src/stm32f1xx_hal_adc_ex.c ****   __HAL_UNLOCK(hadc);
 463              		.loc 1 369 3 is_stmt 1 view .LVU138
 464              		.loc 1 369 3 view .LVU139
 465 002e 0023     		movs	r3, #0
 466 0030 84F82430 		strb	r3, [r4, #36]
 467              		.loc 1 369 3 view .LVU140
 370:Drivers/STM32F1xx_HAL_Driver/Src/stm32f1xx_hal_adc_ex.c ****   
 371:Drivers/STM32F1xx_HAL_Driver/Src/stm32f1xx_hal_adc_ex.c ****   /* Return function status */
 372:Drivers/STM32F1xx_HAL_Driver/Src/stm32f1xx_hal_adc_ex.c ****   return tmp_hal_status;
 468              		.loc 1 372 3 view .LVU141
 373:Drivers/STM32F1xx_HAL_Driver/Src/stm32f1xx_hal_adc_ex.c **** }
 469              		.loc 1 373 1 is_stmt 0 view .LVU142
 470 0034 10BD     		pop	{r4, pc}
 471              	.LVL23:
 472              	.L45:
 349:Drivers/STM32F1xx_HAL_Driver/Src/stm32f1xx_hal_adc_ex.c ****     
 473              		.loc 1 349 5 is_stmt 1 view .LVU143
 349:Drivers/STM32F1xx_HAL_Driver/Src/stm32f1xx_hal_adc_ex.c ****     
 474              		.loc 1 349 22 is_stmt 0 view .LVU144
 475 0036 FFF7FEFF 		bl	ADC_ConversionStop_Disable
ARM GAS  /tmp/ccKo6yLr.s 			page 17


 476              	.LVL24:
 352:Drivers/STM32F1xx_HAL_Driver/Src/stm32f1xx_hal_adc_ex.c ****     {
 477              		.loc 1 352 5 is_stmt 1 view .LVU145
 352:Drivers/STM32F1xx_HAL_Driver/Src/stm32f1xx_hal_adc_ex.c ****     {
 478              		.loc 1 352 8 is_stmt 0 view .LVU146
 479 003a 0028     		cmp	r0, #0
 480 003c F7D1     		bne	.L39
 355:Drivers/STM32F1xx_HAL_Driver/Src/stm32f1xx_hal_adc_ex.c ****                         HAL_ADC_STATE_REG_BUSY | HAL_ADC_STATE_INJ_BUSY,
 481              		.loc 1 355 7 is_stmt 1 view .LVU147
 482 003e A36A     		ldr	r3, [r4, #40]
 483 0040 23F48853 		bic	r3, r3, #4352
 484 0044 23F00103 		bic	r3, r3, #1
 485 0048 43F00103 		orr	r3, r3, #1
 486 004c A362     		str	r3, [r4, #40]
 487 004e EEE7     		b	.L39
 488              	.LVL25:
 489              	.L40:
 490              	.LCFI7:
 491              		.cfi_def_cfa_offset 0
 492              		.cfi_restore 4
 493              		.cfi_restore 14
 336:Drivers/STM32F1xx_HAL_Driver/Src/stm32f1xx_hal_adc_ex.c ****     
 494              		.loc 1 336 3 is_stmt 0 view .LVU148
 495 0050 0220     		movs	r0, #2
 496              	.LVL26:
 497              		.loc 1 373 1 view .LVU149
 498 0052 7047     		bx	lr
 499              		.cfi_endproc
 500              	.LFE67:
 502              		.section	.text.HAL_ADCEx_InjectedPollForConversion,"ax",%progbits
 503              		.align	1
 504              		.global	HAL_ADCEx_InjectedPollForConversion
 505              		.syntax unified
 506              		.thumb
 507              		.thumb_func
 508              		.fpu softvfp
 510              	HAL_ADCEx_InjectedPollForConversion:
 511              	.LVL27:
 512              	.LFB68:
 374:Drivers/STM32F1xx_HAL_Driver/Src/stm32f1xx_hal_adc_ex.c **** 
 375:Drivers/STM32F1xx_HAL_Driver/Src/stm32f1xx_hal_adc_ex.c **** /**
 376:Drivers/STM32F1xx_HAL_Driver/Src/stm32f1xx_hal_adc_ex.c ****   * @brief  Wait for injected group conversion to be completed.
 377:Drivers/STM32F1xx_HAL_Driver/Src/stm32f1xx_hal_adc_ex.c ****   * @param  hadc: ADC handle
 378:Drivers/STM32F1xx_HAL_Driver/Src/stm32f1xx_hal_adc_ex.c ****   * @param  Timeout: Timeout value in millisecond.
 379:Drivers/STM32F1xx_HAL_Driver/Src/stm32f1xx_hal_adc_ex.c ****   * @retval HAL status
 380:Drivers/STM32F1xx_HAL_Driver/Src/stm32f1xx_hal_adc_ex.c ****   */
 381:Drivers/STM32F1xx_HAL_Driver/Src/stm32f1xx_hal_adc_ex.c **** HAL_StatusTypeDef HAL_ADCEx_InjectedPollForConversion(ADC_HandleTypeDef* hadc, uint32_t Timeout)
 382:Drivers/STM32F1xx_HAL_Driver/Src/stm32f1xx_hal_adc_ex.c **** {
 513              		.loc 1 382 1 is_stmt 1 view -0
 514              		.cfi_startproc
 515              		@ args = 0, pretend = 0, frame = 8
 516              		@ frame_needed = 0, uses_anonymous_args = 0
 517              		.loc 1 382 1 is_stmt 0 view .LVU151
 518 0000 F0B5     		push	{r4, r5, r6, r7, lr}
 519              	.LCFI8:
 520              		.cfi_def_cfa_offset 20
 521              		.cfi_offset 4, -20
ARM GAS  /tmp/ccKo6yLr.s 			page 18


 522              		.cfi_offset 5, -16
 523              		.cfi_offset 6, -12
 524              		.cfi_offset 7, -8
 525              		.cfi_offset 14, -4
 526 0002 83B0     		sub	sp, sp, #12
 527              	.LCFI9:
 528              		.cfi_def_cfa_offset 32
 529 0004 0546     		mov	r5, r0
 530 0006 0C46     		mov	r4, r1
 383:Drivers/STM32F1xx_HAL_Driver/Src/stm32f1xx_hal_adc_ex.c ****   uint32_t tickstart;
 531              		.loc 1 383 3 is_stmt 1 view .LVU152
 384:Drivers/STM32F1xx_HAL_Driver/Src/stm32f1xx_hal_adc_ex.c **** 
 385:Drivers/STM32F1xx_HAL_Driver/Src/stm32f1xx_hal_adc_ex.c ****   /* Variables for polling in case of scan mode enabled and polling for each  */
 386:Drivers/STM32F1xx_HAL_Driver/Src/stm32f1xx_hal_adc_ex.c ****   /* conversion.                                                              */
 387:Drivers/STM32F1xx_HAL_Driver/Src/stm32f1xx_hal_adc_ex.c ****   __IO uint32_t Conversion_Timeout_CPU_cycles = 0U;
 532              		.loc 1 387 3 view .LVU153
 533              		.loc 1 387 17 is_stmt 0 view .LVU154
 534 0008 0023     		movs	r3, #0
 535 000a 0193     		str	r3, [sp, #4]
 388:Drivers/STM32F1xx_HAL_Driver/Src/stm32f1xx_hal_adc_ex.c ****   uint32_t Conversion_Timeout_CPU_cycles_max = 0U;
 536              		.loc 1 388 3 is_stmt 1 view .LVU155
 537              	.LVL28:
 389:Drivers/STM32F1xx_HAL_Driver/Src/stm32f1xx_hal_adc_ex.c ****   
 390:Drivers/STM32F1xx_HAL_Driver/Src/stm32f1xx_hal_adc_ex.c ****   /* Check the parameters */
 391:Drivers/STM32F1xx_HAL_Driver/Src/stm32f1xx_hal_adc_ex.c ****   assert_param(IS_ADC_ALL_INSTANCE(hadc->Instance));
 538              		.loc 1 391 3 view .LVU156
 392:Drivers/STM32F1xx_HAL_Driver/Src/stm32f1xx_hal_adc_ex.c **** 
 393:Drivers/STM32F1xx_HAL_Driver/Src/stm32f1xx_hal_adc_ex.c ****   /* Get timeout */
 394:Drivers/STM32F1xx_HAL_Driver/Src/stm32f1xx_hal_adc_ex.c ****   tickstart = HAL_GetTick();  
 539              		.loc 1 394 3 view .LVU157
 540              		.loc 1 394 15 is_stmt 0 view .LVU158
 541 000c FFF7FEFF 		bl	HAL_GetTick
 542              	.LVL29:
 543              		.loc 1 394 15 view .LVU159
 544 0010 0646     		mov	r6, r0
 545              	.LVL30:
 395:Drivers/STM32F1xx_HAL_Driver/Src/stm32f1xx_hal_adc_ex.c ****      
 396:Drivers/STM32F1xx_HAL_Driver/Src/stm32f1xx_hal_adc_ex.c ****   /* Polling for end of conversion: differentiation if single/sequence        */
 397:Drivers/STM32F1xx_HAL_Driver/Src/stm32f1xx_hal_adc_ex.c ****   /* conversion.                                                              */
 398:Drivers/STM32F1xx_HAL_Driver/Src/stm32f1xx_hal_adc_ex.c ****   /* For injected group, flag JEOC is set only at the end of the sequence,    */
 399:Drivers/STM32F1xx_HAL_Driver/Src/stm32f1xx_hal_adc_ex.c ****   /* not for each conversion within the sequence.                             */
 400:Drivers/STM32F1xx_HAL_Driver/Src/stm32f1xx_hal_adc_ex.c ****   /*  - If single conversion for injected group (scan mode disabled or        */
 401:Drivers/STM32F1xx_HAL_Driver/Src/stm32f1xx_hal_adc_ex.c ****   /*    InjectedNbrOfConversion ==1), flag JEOC is used to determine the      */
 402:Drivers/STM32F1xx_HAL_Driver/Src/stm32f1xx_hal_adc_ex.c ****   /*    conversion completion.                                                */
 403:Drivers/STM32F1xx_HAL_Driver/Src/stm32f1xx_hal_adc_ex.c ****   /*  - If sequence conversion for injected group (scan mode enabled and      */
 404:Drivers/STM32F1xx_HAL_Driver/Src/stm32f1xx_hal_adc_ex.c ****   /*    InjectedNbrOfConversion >=2), flag JEOC is set only at the end of the */
 405:Drivers/STM32F1xx_HAL_Driver/Src/stm32f1xx_hal_adc_ex.c ****   /*    sequence.                                                             */
 406:Drivers/STM32F1xx_HAL_Driver/Src/stm32f1xx_hal_adc_ex.c ****   /*    To poll for each conversion, the maximum conversion time is computed  */
 407:Drivers/STM32F1xx_HAL_Driver/Src/stm32f1xx_hal_adc_ex.c ****   /*    from ADC conversion time (selected sampling time + conversion time of */
 408:Drivers/STM32F1xx_HAL_Driver/Src/stm32f1xx_hal_adc_ex.c ****   /*    12.5 ADC clock cycles) and APB2/ADC clock prescalers (depending on    */
 409:Drivers/STM32F1xx_HAL_Driver/Src/stm32f1xx_hal_adc_ex.c ****   /*    settings, conversion time range can be from 28 to 32256 CPU cycles).  */
 410:Drivers/STM32F1xx_HAL_Driver/Src/stm32f1xx_hal_adc_ex.c ****   /*    As flag JEOC is not set after each conversion, no timeout status can  */
 411:Drivers/STM32F1xx_HAL_Driver/Src/stm32f1xx_hal_adc_ex.c ****   /*    be set.                                                               */
 412:Drivers/STM32F1xx_HAL_Driver/Src/stm32f1xx_hal_adc_ex.c ****   if ((hadc->Instance->JSQR & ADC_JSQR_JL) == RESET)
 546              		.loc 1 412 3 is_stmt 1 view .LVU160
 547              		.loc 1 412 12 is_stmt 0 view .LVU161
 548 0012 2B68     		ldr	r3, [r5]
ARM GAS  /tmp/ccKo6yLr.s 			page 19


 549              		.loc 1 412 22 view .LVU162
 550 0014 9B6B     		ldr	r3, [r3, #56]
 551              		.loc 1 412 6 view .LVU163
 552 0016 13F4401F 		tst	r3, #3145728
 553 001a 1CD1     		bne	.L74
 554              	.LVL31:
 555              	.L49:
 413:Drivers/STM32F1xx_HAL_Driver/Src/stm32f1xx_hal_adc_ex.c ****   {
 414:Drivers/STM32F1xx_HAL_Driver/Src/stm32f1xx_hal_adc_ex.c ****     /* Wait until End of Conversion flag is raised */
 415:Drivers/STM32F1xx_HAL_Driver/Src/stm32f1xx_hal_adc_ex.c ****     while(HAL_IS_BIT_CLR(hadc->Instance->SR, ADC_FLAG_JEOC))
 556              		.loc 1 415 10 is_stmt 1 view .LVU164
 557              		.loc 1 415 11 is_stmt 0 view .LVU165
 558 001c 2B68     		ldr	r3, [r5]
 559 001e 1B68     		ldr	r3, [r3]
 560              		.loc 1 415 10 view .LVU166
 561 0020 13F0040F 		tst	r3, #4
 562 0024 6ED1     		bne	.L54
 416:Drivers/STM32F1xx_HAL_Driver/Src/stm32f1xx_hal_adc_ex.c ****     {
 417:Drivers/STM32F1xx_HAL_Driver/Src/stm32f1xx_hal_adc_ex.c ****       /* Check if timeout is disabled (set to infinite wait) */
 418:Drivers/STM32F1xx_HAL_Driver/Src/stm32f1xx_hal_adc_ex.c ****       if(Timeout != HAL_MAX_DELAY)
 563              		.loc 1 418 7 is_stmt 1 view .LVU167
 564              		.loc 1 418 9 is_stmt 0 view .LVU168
 565 0026 B4F1FF3F 		cmp	r4, #-1
 566 002a F7D0     		beq	.L49
 419:Drivers/STM32F1xx_HAL_Driver/Src/stm32f1xx_hal_adc_ex.c ****       {
 420:Drivers/STM32F1xx_HAL_Driver/Src/stm32f1xx_hal_adc_ex.c ****         if((Timeout == 0U) || ((HAL_GetTick() - tickstart ) > Timeout))
 567              		.loc 1 420 9 is_stmt 1 view .LVU169
 568              		.loc 1 420 11 is_stmt 0 view .LVU170
 569 002c 6CB9     		cbnz	r4, .L75
 570              	.L50:
 421:Drivers/STM32F1xx_HAL_Driver/Src/stm32f1xx_hal_adc_ex.c ****         {
 422:Drivers/STM32F1xx_HAL_Driver/Src/stm32f1xx_hal_adc_ex.c ****           /* New check to avoid false timeout detection in case of preemption */
 423:Drivers/STM32F1xx_HAL_Driver/Src/stm32f1xx_hal_adc_ex.c ****           if(HAL_IS_BIT_CLR(hadc->Instance->SR, ADC_FLAG_JEOC))
 571              		.loc 1 423 11 is_stmt 1 view .LVU171
 572              		.loc 1 423 14 is_stmt 0 view .LVU172
 573 002e 2B68     		ldr	r3, [r5]
 574 0030 1B68     		ldr	r3, [r3]
 575              		.loc 1 423 13 view .LVU173
 576 0032 13F0040F 		tst	r3, #4
 577 0036 F1D1     		bne	.L49
 424:Drivers/STM32F1xx_HAL_Driver/Src/stm32f1xx_hal_adc_ex.c ****           {
 425:Drivers/STM32F1xx_HAL_Driver/Src/stm32f1xx_hal_adc_ex.c ****             /* Update ADC state machine to timeout */
 426:Drivers/STM32F1xx_HAL_Driver/Src/stm32f1xx_hal_adc_ex.c ****             SET_BIT(hadc->State, HAL_ADC_STATE_TIMEOUT);
 578              		.loc 1 426 13 is_stmt 1 view .LVU174
 579 0038 AB6A     		ldr	r3, [r5, #40]
 580 003a 43F00403 		orr	r3, r3, #4
 581 003e AB62     		str	r3, [r5, #40]
 427:Drivers/STM32F1xx_HAL_Driver/Src/stm32f1xx_hal_adc_ex.c **** 
 428:Drivers/STM32F1xx_HAL_Driver/Src/stm32f1xx_hal_adc_ex.c ****             /* Process unlocked */
 429:Drivers/STM32F1xx_HAL_Driver/Src/stm32f1xx_hal_adc_ex.c ****             __HAL_UNLOCK(hadc);
 582              		.loc 1 429 13 view .LVU175
 583              		.loc 1 429 13 view .LVU176
 584 0040 0023     		movs	r3, #0
 585 0042 85F82430 		strb	r3, [r5, #36]
 586              		.loc 1 429 13 view .LVU177
 430:Drivers/STM32F1xx_HAL_Driver/Src/stm32f1xx_hal_adc_ex.c **** 
 431:Drivers/STM32F1xx_HAL_Driver/Src/stm32f1xx_hal_adc_ex.c ****             return HAL_TIMEOUT;
ARM GAS  /tmp/ccKo6yLr.s 			page 20


 587              		.loc 1 431 13 view .LVU178
 588              		.loc 1 431 20 is_stmt 0 view .LVU179
 589 0046 0320     		movs	r0, #3
 590 0048 88E0     		b	.L52
 591              	.L75:
 420:Drivers/STM32F1xx_HAL_Driver/Src/stm32f1xx_hal_adc_ex.c ****         {
 592              		.loc 1 420 33 discriminator 1 view .LVU180
 593 004a FFF7FEFF 		bl	HAL_GetTick
 594              	.LVL32:
 420:Drivers/STM32F1xx_HAL_Driver/Src/stm32f1xx_hal_adc_ex.c ****         {
 595              		.loc 1 420 47 discriminator 1 view .LVU181
 596 004e 801B     		subs	r0, r0, r6
 420:Drivers/STM32F1xx_HAL_Driver/Src/stm32f1xx_hal_adc_ex.c ****         {
 597              		.loc 1 420 28 discriminator 1 view .LVU182
 598 0050 A042     		cmp	r0, r4
 599 0052 E3D9     		bls	.L49
 600 0054 EBE7     		b	.L50
 601              	.LVL33:
 602              	.L74:
 432:Drivers/STM32F1xx_HAL_Driver/Src/stm32f1xx_hal_adc_ex.c ****           }
 433:Drivers/STM32F1xx_HAL_Driver/Src/stm32f1xx_hal_adc_ex.c ****         }
 434:Drivers/STM32F1xx_HAL_Driver/Src/stm32f1xx_hal_adc_ex.c ****       }
 435:Drivers/STM32F1xx_HAL_Driver/Src/stm32f1xx_hal_adc_ex.c ****     }
 436:Drivers/STM32F1xx_HAL_Driver/Src/stm32f1xx_hal_adc_ex.c ****   }
 437:Drivers/STM32F1xx_HAL_Driver/Src/stm32f1xx_hal_adc_ex.c ****   else
 438:Drivers/STM32F1xx_HAL_Driver/Src/stm32f1xx_hal_adc_ex.c ****   {
 439:Drivers/STM32F1xx_HAL_Driver/Src/stm32f1xx_hal_adc_ex.c ****     /* Replace polling by wait for maximum conversion time */
 440:Drivers/STM32F1xx_HAL_Driver/Src/stm32f1xx_hal_adc_ex.c ****     /*  - Computation of CPU clock cycles corresponding to ADC clock cycles   */
 441:Drivers/STM32F1xx_HAL_Driver/Src/stm32f1xx_hal_adc_ex.c ****     /*    and ADC maximum conversion cycles on all channels.                  */
 442:Drivers/STM32F1xx_HAL_Driver/Src/stm32f1xx_hal_adc_ex.c ****     /*  - Wait for the expected ADC clock cycles delay                        */
 443:Drivers/STM32F1xx_HAL_Driver/Src/stm32f1xx_hal_adc_ex.c ****     Conversion_Timeout_CPU_cycles_max = ((SystemCoreClock
 603              		.loc 1 443 5 is_stmt 1 view .LVU183
 444:Drivers/STM32F1xx_HAL_Driver/Src/stm32f1xx_hal_adc_ex.c ****                                           / HAL_RCCEx_GetPeriphCLKFreq(RCC_PERIPHCLK_ADC))
 604              		.loc 1 444 43 is_stmt 0 view .LVU184
 605 0056 444B     		ldr	r3, .L78
 606 0058 1F68     		ldr	r7, [r3]
 607              		.loc 1 444 45 view .LVU185
 608 005a 0220     		movs	r0, #2
 609              	.LVL34:
 610              		.loc 1 444 45 view .LVU186
 611 005c FFF7FEFF 		bl	HAL_RCCEx_GetPeriphCLKFreq
 612              	.LVL35:
 613              		.loc 1 444 43 view .LVU187
 614 0060 B7FBF0F7 		udiv	r7, r7, r0
 445:Drivers/STM32F1xx_HAL_Driver/Src/stm32f1xx_hal_adc_ex.c ****                                          * ADC_CONVCYCLES_MAX_RANGE(hadc)                 );
 615              		.loc 1 445 44 view .LVU188
 616 0064 2B68     		ldr	r3, [r5]
 617 0066 1969     		ldr	r1, [r3, #16]
 618 0068 404A     		ldr	r2, .L78+4
 619 006a 1142     		tst	r1, r2
 620 006c 0ED1     		bne	.L55
 621              		.loc 1 445 44 discriminator 1 view .LVU189
 622 006e D968     		ldr	r1, [r3, #12]
 623 0070 02F15C42 		add	r2, r2, #-603979776
 624 0074 1142     		tst	r1, r2
 625 0076 09D1     		bne	.L55
 626              		.loc 1 445 44 discriminator 3 view .LVU190
ARM GAS  /tmp/ccKo6yLr.s 			page 21


 627 0078 1969     		ldr	r1, [r3, #16]
 628 007a 3D4A     		ldr	r2, .L78+8
 629 007c 1142     		tst	r1, r2
 630 007e 18D1     		bne	.L63
 631              		.loc 1 445 44 discriminator 5 view .LVU191
 632 0080 DA68     		ldr	r2, [r3, #12]
 633 0082 3C4B     		ldr	r3, .L78+12
 634 0084 1A42     		tst	r2, r3
 635 0086 16D0     		beq	.L64
 636              		.loc 1 445 44 view .LVU192
 637 0088 2923     		movs	r3, #41
 638 008a 19E0     		b	.L56
 639              	.L55:
 640              		.loc 1 445 44 discriminator 4 view .LVU193
 641 008c 1969     		ldr	r1, [r3, #16]
 642 008e 384A     		ldr	r2, .L78+8
 643 0090 1142     		tst	r1, r2
 644 0092 04D1     		bne	.L57
 645              		.loc 1 445 44 discriminator 11 view .LVU194
 646 0094 D968     		ldr	r1, [r3, #12]
 647 0096 02F16E42 		add	r2, r2, #-301989888
 648 009a 1142     		tst	r1, r2
 649 009c 0DD0     		beq	.L65
 650              	.L57:
 651              		.loc 1 445 44 discriminator 14 view .LVU195
 652 009e 1969     		ldr	r1, [r3, #16]
 653 00a0 354A     		ldr	r2, .L78+16
 654 00a2 0A40     		ands	r2, r2, r1
 655 00a4 5AB9     		cbnz	r2, .L66
 656              		.loc 1 445 44 discriminator 15 view .LVU196
 657 00a6 DA68     		ldr	r2, [r3, #12]
 658 00a8 334B     		ldr	r3, .L78+16
 659 00aa 1340     		ands	r3, r3, r2
 660 00ac 5BB1     		cbz	r3, .L67
 661              		.loc 1 445 44 view .LVU197
 662 00ae FC23     		movs	r3, #252
 663 00b0 06E0     		b	.L56
 664              	.L63:
 665 00b2 2923     		movs	r3, #41
 666 00b4 04E0     		b	.L56
 667              	.L64:
 668 00b6 1423     		movs	r3, #20
 669 00b8 02E0     		b	.L56
 670              	.L65:
 671 00ba 5423     		movs	r3, #84
 672 00bc 00E0     		b	.L56
 673              	.L66:
 674 00be FC23     		movs	r3, #252
 675              	.L56:
 443:Drivers/STM32F1xx_HAL_Driver/Src/stm32f1xx_hal_adc_ex.c ****                                           / HAL_RCCEx_GetPeriphCLKFreq(RCC_PERIPHCLK_ADC))
 676              		.loc 1 443 39 view .LVU198
 677 00c0 03FB07F7 		mul	r7, r3, r7
 678              	.LVL36:
 446:Drivers/STM32F1xx_HAL_Driver/Src/stm32f1xx_hal_adc_ex.c ****     
 447:Drivers/STM32F1xx_HAL_Driver/Src/stm32f1xx_hal_adc_ex.c ****     while(Conversion_Timeout_CPU_cycles < Conversion_Timeout_CPU_cycles_max)
 679              		.loc 1 447 5 is_stmt 1 view .LVU199
 680              		.loc 1 447 10 is_stmt 0 view .LVU200
ARM GAS  /tmp/ccKo6yLr.s 			page 22


 681 00c4 07E0     		b	.L58
 682              	.LVL37:
 683              	.L67:
 445:Drivers/STM32F1xx_HAL_Driver/Src/stm32f1xx_hal_adc_ex.c ****     
 684              		.loc 1 445 44 view .LVU201
 685 00c6 5423     		movs	r3, #84
 686 00c8 FAE7     		b	.L56
 687              	.LVL38:
 688              	.L60:
 448:Drivers/STM32F1xx_HAL_Driver/Src/stm32f1xx_hal_adc_ex.c ****     {
 449:Drivers/STM32F1xx_HAL_Driver/Src/stm32f1xx_hal_adc_ex.c ****       /* Check if timeout is disabled (set to infinite wait) */
 450:Drivers/STM32F1xx_HAL_Driver/Src/stm32f1xx_hal_adc_ex.c ****       if(Timeout != HAL_MAX_DELAY)
 451:Drivers/STM32F1xx_HAL_Driver/Src/stm32f1xx_hal_adc_ex.c ****       {
 452:Drivers/STM32F1xx_HAL_Driver/Src/stm32f1xx_hal_adc_ex.c ****         if((Timeout == 0)||((HAL_GetTick() - tickstart ) > Timeout))
 453:Drivers/STM32F1xx_HAL_Driver/Src/stm32f1xx_hal_adc_ex.c ****         {
 454:Drivers/STM32F1xx_HAL_Driver/Src/stm32f1xx_hal_adc_ex.c ****           /* New check to avoid false timeout detection in case of preemption */
 455:Drivers/STM32F1xx_HAL_Driver/Src/stm32f1xx_hal_adc_ex.c ****           if(Conversion_Timeout_CPU_cycles < Conversion_Timeout_CPU_cycles_max)
 689              		.loc 1 455 11 is_stmt 1 view .LVU202
 690              		.loc 1 455 44 is_stmt 0 view .LVU203
 691 00ca 019B     		ldr	r3, [sp, #4]
 692              		.loc 1 455 13 view .LVU204
 693 00cc BB42     		cmp	r3, r7
 694 00ce 10D3     		bcc	.L76
 695              	.L59:
 456:Drivers/STM32F1xx_HAL_Driver/Src/stm32f1xx_hal_adc_ex.c ****           {
 457:Drivers/STM32F1xx_HAL_Driver/Src/stm32f1xx_hal_adc_ex.c ****             /* Update ADC state machine to timeout */
 458:Drivers/STM32F1xx_HAL_Driver/Src/stm32f1xx_hal_adc_ex.c ****             SET_BIT(hadc->State, HAL_ADC_STATE_TIMEOUT);
 459:Drivers/STM32F1xx_HAL_Driver/Src/stm32f1xx_hal_adc_ex.c **** 
 460:Drivers/STM32F1xx_HAL_Driver/Src/stm32f1xx_hal_adc_ex.c ****             /* Process unlocked */
 461:Drivers/STM32F1xx_HAL_Driver/Src/stm32f1xx_hal_adc_ex.c ****             __HAL_UNLOCK(hadc);
 462:Drivers/STM32F1xx_HAL_Driver/Src/stm32f1xx_hal_adc_ex.c **** 
 463:Drivers/STM32F1xx_HAL_Driver/Src/stm32f1xx_hal_adc_ex.c ****             return HAL_TIMEOUT;
 464:Drivers/STM32F1xx_HAL_Driver/Src/stm32f1xx_hal_adc_ex.c ****           }
 465:Drivers/STM32F1xx_HAL_Driver/Src/stm32f1xx_hal_adc_ex.c ****         }
 466:Drivers/STM32F1xx_HAL_Driver/Src/stm32f1xx_hal_adc_ex.c ****       }
 467:Drivers/STM32F1xx_HAL_Driver/Src/stm32f1xx_hal_adc_ex.c ****       Conversion_Timeout_CPU_cycles ++;
 696              		.loc 1 467 7 is_stmt 1 view .LVU205
 697              		.loc 1 467 37 is_stmt 0 view .LVU206
 698 00d0 019B     		ldr	r3, [sp, #4]
 699 00d2 0133     		adds	r3, r3, #1
 700 00d4 0193     		str	r3, [sp, #4]
 701              	.L58:
 447:Drivers/STM32F1xx_HAL_Driver/Src/stm32f1xx_hal_adc_ex.c ****     {
 702              		.loc 1 447 10 is_stmt 1 view .LVU207
 447:Drivers/STM32F1xx_HAL_Driver/Src/stm32f1xx_hal_adc_ex.c ****     {
 703              		.loc 1 447 41 is_stmt 0 view .LVU208
 704 00d6 019B     		ldr	r3, [sp, #4]
 447:Drivers/STM32F1xx_HAL_Driver/Src/stm32f1xx_hal_adc_ex.c ****     {
 705              		.loc 1 447 10 view .LVU209
 706 00d8 BB42     		cmp	r3, r7
 707 00da 13D2     		bcs	.L54
 450:Drivers/STM32F1xx_HAL_Driver/Src/stm32f1xx_hal_adc_ex.c ****       {
 708              		.loc 1 450 7 is_stmt 1 view .LVU210
 450:Drivers/STM32F1xx_HAL_Driver/Src/stm32f1xx_hal_adc_ex.c ****       {
 709              		.loc 1 450 9 is_stmt 0 view .LVU211
 710 00dc B4F1FF3F 		cmp	r4, #-1
 711 00e0 F6D0     		beq	.L59
ARM GAS  /tmp/ccKo6yLr.s 			page 23


 452:Drivers/STM32F1xx_HAL_Driver/Src/stm32f1xx_hal_adc_ex.c ****         {
 712              		.loc 1 452 9 is_stmt 1 view .LVU212
 452:Drivers/STM32F1xx_HAL_Driver/Src/stm32f1xx_hal_adc_ex.c ****         {
 713              		.loc 1 452 11 is_stmt 0 view .LVU213
 714 00e2 002C     		cmp	r4, #0
 715 00e4 F1D0     		beq	.L60
 452:Drivers/STM32F1xx_HAL_Driver/Src/stm32f1xx_hal_adc_ex.c ****         {
 716              		.loc 1 452 30 discriminator 1 view .LVU214
 717 00e6 FFF7FEFF 		bl	HAL_GetTick
 718              	.LVL39:
 452:Drivers/STM32F1xx_HAL_Driver/Src/stm32f1xx_hal_adc_ex.c ****         {
 719              		.loc 1 452 44 discriminator 1 view .LVU215
 720 00ea 801B     		subs	r0, r0, r6
 452:Drivers/STM32F1xx_HAL_Driver/Src/stm32f1xx_hal_adc_ex.c ****         {
 721              		.loc 1 452 26 discriminator 1 view .LVU216
 722 00ec A042     		cmp	r0, r4
 723 00ee EFD9     		bls	.L59
 724 00f0 EBE7     		b	.L60
 725              	.L76:
 458:Drivers/STM32F1xx_HAL_Driver/Src/stm32f1xx_hal_adc_ex.c **** 
 726              		.loc 1 458 13 is_stmt 1 view .LVU217
 727 00f2 AB6A     		ldr	r3, [r5, #40]
 728 00f4 43F00403 		orr	r3, r3, #4
 729 00f8 AB62     		str	r3, [r5, #40]
 461:Drivers/STM32F1xx_HAL_Driver/Src/stm32f1xx_hal_adc_ex.c **** 
 730              		.loc 1 461 13 view .LVU218
 461:Drivers/STM32F1xx_HAL_Driver/Src/stm32f1xx_hal_adc_ex.c **** 
 731              		.loc 1 461 13 view .LVU219
 732 00fa 0023     		movs	r3, #0
 733 00fc 85F82430 		strb	r3, [r5, #36]
 461:Drivers/STM32F1xx_HAL_Driver/Src/stm32f1xx_hal_adc_ex.c **** 
 734              		.loc 1 461 13 view .LVU220
 463:Drivers/STM32F1xx_HAL_Driver/Src/stm32f1xx_hal_adc_ex.c ****           }
 735              		.loc 1 463 13 view .LVU221
 463:Drivers/STM32F1xx_HAL_Driver/Src/stm32f1xx_hal_adc_ex.c ****           }
 736              		.loc 1 463 20 is_stmt 0 view .LVU222
 737 0100 0320     		movs	r0, #3
 738 0102 2BE0     		b	.L52
 739              	.LVL40:
 740              	.L54:
 468:Drivers/STM32F1xx_HAL_Driver/Src/stm32f1xx_hal_adc_ex.c ****     }
 469:Drivers/STM32F1xx_HAL_Driver/Src/stm32f1xx_hal_adc_ex.c ****   }
 470:Drivers/STM32F1xx_HAL_Driver/Src/stm32f1xx_hal_adc_ex.c **** 
 471:Drivers/STM32F1xx_HAL_Driver/Src/stm32f1xx_hal_adc_ex.c ****   /* Clear injected group conversion flag */
 472:Drivers/STM32F1xx_HAL_Driver/Src/stm32f1xx_hal_adc_ex.c ****   /* Note: On STM32F1 ADC, clear regular conversion flag raised               */
 473:Drivers/STM32F1xx_HAL_Driver/Src/stm32f1xx_hal_adc_ex.c ****   /* simultaneously.                                                          */
 474:Drivers/STM32F1xx_HAL_Driver/Src/stm32f1xx_hal_adc_ex.c ****   __HAL_ADC_CLEAR_FLAG(hadc, ADC_FLAG_JSTRT | ADC_FLAG_JEOC | ADC_FLAG_EOC);
 741              		.loc 1 474 3 is_stmt 1 view .LVU223
 742 0104 2B68     		ldr	r3, [r5]
 743 0106 6FF00E02 		mvn	r2, #14
 744 010a 1A60     		str	r2, [r3]
 475:Drivers/STM32F1xx_HAL_Driver/Src/stm32f1xx_hal_adc_ex.c ****   
 476:Drivers/STM32F1xx_HAL_Driver/Src/stm32f1xx_hal_adc_ex.c ****   /* Update ADC state machine */
 477:Drivers/STM32F1xx_HAL_Driver/Src/stm32f1xx_hal_adc_ex.c ****   SET_BIT(hadc->State, HAL_ADC_STATE_INJ_EOC);
 745              		.loc 1 477 3 view .LVU224
 746 010c AB6A     		ldr	r3, [r5, #40]
 747 010e 43F40053 		orr	r3, r3, #8192
ARM GAS  /tmp/ccKo6yLr.s 			page 24


 748 0112 AB62     		str	r3, [r5, #40]
 478:Drivers/STM32F1xx_HAL_Driver/Src/stm32f1xx_hal_adc_ex.c ****   
 479:Drivers/STM32F1xx_HAL_Driver/Src/stm32f1xx_hal_adc_ex.c ****   /* Determine whether any further conversion upcoming on group injected      */
 480:Drivers/STM32F1xx_HAL_Driver/Src/stm32f1xx_hal_adc_ex.c ****   /* by external trigger or by automatic injected conversion                  */
 481:Drivers/STM32F1xx_HAL_Driver/Src/stm32f1xx_hal_adc_ex.c ****   /* from group regular.                                                      */
 482:Drivers/STM32F1xx_HAL_Driver/Src/stm32f1xx_hal_adc_ex.c ****   if(ADC_IS_SOFTWARE_START_INJECTED(hadc)                     || 
 749              		.loc 1 482 3 view .LVU225
 750              		.loc 1 482 6 is_stmt 0 view .LVU226
 751 0114 2A68     		ldr	r2, [r5]
 752 0116 9368     		ldr	r3, [r2, #8]
 753 0118 03F4E043 		and	r3, r3, #28672
 754              		.loc 1 482 5 view .LVU227
 755 011c B3F5E04F 		cmp	r3, #28672
 756 0120 0DD0     		beq	.L62
 483:Drivers/STM32F1xx_HAL_Driver/Src/stm32f1xx_hal_adc_ex.c ****      (HAL_IS_BIT_CLR(hadc->Instance->CR1, ADC_CR1_JAUTO) &&     
 757              		.loc 1 483 7 discriminator 1 view .LVU228
 758 0122 5368     		ldr	r3, [r2, #4]
 482:Drivers/STM32F1xx_HAL_Driver/Src/stm32f1xx_hal_adc_ex.c ****      (HAL_IS_BIT_CLR(hadc->Instance->CR1, ADC_CR1_JAUTO) &&     
 759              		.loc 1 482 63 discriminator 1 view .LVU229
 760 0124 13F4806F 		tst	r3, #1024
 761 0128 17D1     		bne	.L68
 484:Drivers/STM32F1xx_HAL_Driver/Src/stm32f1xx_hal_adc_ex.c ****      (ADC_IS_SOFTWARE_START_REGULAR(hadc)        &&
 762              		.loc 1 484 7 view .LVU230
 763 012a 9368     		ldr	r3, [r2, #8]
 764 012c 03F46023 		and	r3, r3, #917504
 483:Drivers/STM32F1xx_HAL_Driver/Src/stm32f1xx_hal_adc_ex.c ****      (HAL_IS_BIT_CLR(hadc->Instance->CR1, ADC_CR1_JAUTO) &&     
 765              		.loc 1 483 58 view .LVU231
 766 0130 B3F5602F 		cmp	r3, #917504
 767 0134 01D0     		beq	.L77
 485:Drivers/STM32F1xx_HAL_Driver/Src/stm32f1xx_hal_adc_ex.c ****       (hadc->Init.ContinuousConvMode == DISABLE)   )        )   )
 486:Drivers/STM32F1xx_HAL_Driver/Src/stm32f1xx_hal_adc_ex.c ****   {
 487:Drivers/STM32F1xx_HAL_Driver/Src/stm32f1xx_hal_adc_ex.c ****     /* Set ADC state */
 488:Drivers/STM32F1xx_HAL_Driver/Src/stm32f1xx_hal_adc_ex.c ****     CLEAR_BIT(hadc->State, HAL_ADC_STATE_INJ_BUSY);   
 489:Drivers/STM32F1xx_HAL_Driver/Src/stm32f1xx_hal_adc_ex.c ****     
 490:Drivers/STM32F1xx_HAL_Driver/Src/stm32f1xx_hal_adc_ex.c ****     if (HAL_IS_BIT_CLR(hadc->State, HAL_ADC_STATE_REG_BUSY))
 491:Drivers/STM32F1xx_HAL_Driver/Src/stm32f1xx_hal_adc_ex.c ****     {
 492:Drivers/STM32F1xx_HAL_Driver/Src/stm32f1xx_hal_adc_ex.c ****       SET_BIT(hadc->State, HAL_ADC_STATE_READY);
 493:Drivers/STM32F1xx_HAL_Driver/Src/stm32f1xx_hal_adc_ex.c ****     }
 494:Drivers/STM32F1xx_HAL_Driver/Src/stm32f1xx_hal_adc_ex.c ****   }
 495:Drivers/STM32F1xx_HAL_Driver/Src/stm32f1xx_hal_adc_ex.c ****   
 496:Drivers/STM32F1xx_HAL_Driver/Src/stm32f1xx_hal_adc_ex.c ****   /* Return ADC state */
 497:Drivers/STM32F1xx_HAL_Driver/Src/stm32f1xx_hal_adc_ex.c ****   return HAL_OK;
 768              		.loc 1 497 10 view .LVU232
 769 0136 0020     		movs	r0, #0
 770 0138 10E0     		b	.L52
 771              	.L77:
 485:Drivers/STM32F1xx_HAL_Driver/Src/stm32f1xx_hal_adc_ex.c ****       (hadc->Init.ContinuousConvMode == DISABLE)   )        )   )
 772              		.loc 1 485 18 view .LVU233
 773 013a 2B7B     		ldrb	r3, [r5, #12]	@ zero_extendqisi2
 484:Drivers/STM32F1xx_HAL_Driver/Src/stm32f1xx_hal_adc_ex.c ****      (ADC_IS_SOFTWARE_START_REGULAR(hadc)        &&
 774              		.loc 1 484 50 view .LVU234
 775 013c 83B9     		cbnz	r3, .L70
 776              	.L62:
 488:Drivers/STM32F1xx_HAL_Driver/Src/stm32f1xx_hal_adc_ex.c ****     
 777              		.loc 1 488 5 is_stmt 1 view .LVU235
 778 013e AB6A     		ldr	r3, [r5, #40]
 779 0140 23F48053 		bic	r3, r3, #4096
ARM GAS  /tmp/ccKo6yLr.s 			page 25


 780 0144 AB62     		str	r3, [r5, #40]
 490:Drivers/STM32F1xx_HAL_Driver/Src/stm32f1xx_hal_adc_ex.c ****     {
 781              		.loc 1 490 5 view .LVU236
 490:Drivers/STM32F1xx_HAL_Driver/Src/stm32f1xx_hal_adc_ex.c ****     {
 782              		.loc 1 490 9 is_stmt 0 view .LVU237
 783 0146 AB6A     		ldr	r3, [r5, #40]
 490:Drivers/STM32F1xx_HAL_Driver/Src/stm32f1xx_hal_adc_ex.c ****     {
 784              		.loc 1 490 8 view .LVU238
 785 0148 13F4807F 		tst	r3, #256
 786 014c 0AD1     		bne	.L71
 492:Drivers/STM32F1xx_HAL_Driver/Src/stm32f1xx_hal_adc_ex.c ****     }
 787              		.loc 1 492 7 is_stmt 1 view .LVU239
 788 014e AB6A     		ldr	r3, [r5, #40]
 789 0150 43F00103 		orr	r3, r3, #1
 790 0154 AB62     		str	r3, [r5, #40]
 791              		.loc 1 497 10 is_stmt 0 view .LVU240
 792 0156 0020     		movs	r0, #0
 793 0158 00E0     		b	.L52
 794              	.L68:
 795              		.loc 1 497 10 view .LVU241
 796 015a 0020     		movs	r0, #0
 797              	.L52:
 498:Drivers/STM32F1xx_HAL_Driver/Src/stm32f1xx_hal_adc_ex.c **** }
 798              		.loc 1 498 1 view .LVU242
 799 015c 03B0     		add	sp, sp, #12
 800              	.LCFI10:
 801              		.cfi_remember_state
 802              		.cfi_def_cfa_offset 20
 803              		@ sp needed
 804 015e F0BD     		pop	{r4, r5, r6, r7, pc}
 805              	.LVL41:
 806              	.L70:
 807              	.LCFI11:
 808              		.cfi_restore_state
 497:Drivers/STM32F1xx_HAL_Driver/Src/stm32f1xx_hal_adc_ex.c **** }
 809              		.loc 1 497 10 view .LVU243
 810 0160 0020     		movs	r0, #0
 811 0162 FBE7     		b	.L52
 812              	.L71:
 497:Drivers/STM32F1xx_HAL_Driver/Src/stm32f1xx_hal_adc_ex.c **** }
 813              		.loc 1 497 10 view .LVU244
 814 0164 0020     		movs	r0, #0
 815 0166 F9E7     		b	.L52
 816              	.L79:
 817              		.align	2
 818              	.L78:
 819 0168 00000000 		.word	SystemCoreClock
 820 016c 24499224 		.word	613566756
 821 0170 92244912 		.word	306783378
 822 0174 92244900 		.word	4793490
 823 0178 49922400 		.word	2396745
 824              		.cfi_endproc
 825              	.LFE68:
 827              		.section	.text.HAL_ADCEx_InjectedStart_IT,"ax",%progbits
 828              		.align	1
 829              		.global	HAL_ADCEx_InjectedStart_IT
 830              		.syntax unified
ARM GAS  /tmp/ccKo6yLr.s 			page 26


 831              		.thumb
 832              		.thumb_func
 833              		.fpu softvfp
 835              	HAL_ADCEx_InjectedStart_IT:
 836              	.LVL42:
 837              	.LFB69:
 499:Drivers/STM32F1xx_HAL_Driver/Src/stm32f1xx_hal_adc_ex.c **** 
 500:Drivers/STM32F1xx_HAL_Driver/Src/stm32f1xx_hal_adc_ex.c **** /**
 501:Drivers/STM32F1xx_HAL_Driver/Src/stm32f1xx_hal_adc_ex.c ****   * @brief  Enables ADC, starts conversion of injected group with interruption.
 502:Drivers/STM32F1xx_HAL_Driver/Src/stm32f1xx_hal_adc_ex.c ****   *          - JEOC (end of conversion of injected group)
 503:Drivers/STM32F1xx_HAL_Driver/Src/stm32f1xx_hal_adc_ex.c ****   *         Each of these interruptions has its dedicated callback function.
 504:Drivers/STM32F1xx_HAL_Driver/Src/stm32f1xx_hal_adc_ex.c ****   * @param  hadc: ADC handle
 505:Drivers/STM32F1xx_HAL_Driver/Src/stm32f1xx_hal_adc_ex.c ****   * @retval HAL status.
 506:Drivers/STM32F1xx_HAL_Driver/Src/stm32f1xx_hal_adc_ex.c ****   */
 507:Drivers/STM32F1xx_HAL_Driver/Src/stm32f1xx_hal_adc_ex.c **** HAL_StatusTypeDef HAL_ADCEx_InjectedStart_IT(ADC_HandleTypeDef* hadc)
 508:Drivers/STM32F1xx_HAL_Driver/Src/stm32f1xx_hal_adc_ex.c **** {
 838              		.loc 1 508 1 is_stmt 1 view -0
 839              		.cfi_startproc
 840              		@ args = 0, pretend = 0, frame = 0
 841              		@ frame_needed = 0, uses_anonymous_args = 0
 509:Drivers/STM32F1xx_HAL_Driver/Src/stm32f1xx_hal_adc_ex.c ****   HAL_StatusTypeDef tmp_hal_status = HAL_OK;
 842              		.loc 1 509 3 view .LVU246
 510:Drivers/STM32F1xx_HAL_Driver/Src/stm32f1xx_hal_adc_ex.c ****   
 511:Drivers/STM32F1xx_HAL_Driver/Src/stm32f1xx_hal_adc_ex.c ****   /* Check the parameters */
 512:Drivers/STM32F1xx_HAL_Driver/Src/stm32f1xx_hal_adc_ex.c ****   assert_param(IS_ADC_ALL_INSTANCE(hadc->Instance));
 843              		.loc 1 512 3 view .LVU247
 513:Drivers/STM32F1xx_HAL_Driver/Src/stm32f1xx_hal_adc_ex.c ****   
 514:Drivers/STM32F1xx_HAL_Driver/Src/stm32f1xx_hal_adc_ex.c ****   /* Process locked */
 515:Drivers/STM32F1xx_HAL_Driver/Src/stm32f1xx_hal_adc_ex.c ****   __HAL_LOCK(hadc);
 844              		.loc 1 515 3 view .LVU248
 845              		.loc 1 515 3 view .LVU249
 846 0000 90F82430 		ldrb	r3, [r0, #36]	@ zero_extendqisi2
 847 0004 012B     		cmp	r3, #1
 848 0006 57D0     		beq	.L89
 508:Drivers/STM32F1xx_HAL_Driver/Src/stm32f1xx_hal_adc_ex.c ****   HAL_StatusTypeDef tmp_hal_status = HAL_OK;
 849              		.loc 1 508 1 is_stmt 0 discriminator 2 view .LVU250
 850 0008 10B5     		push	{r4, lr}
 851              	.LCFI12:
 852              		.cfi_def_cfa_offset 8
 853              		.cfi_offset 4, -8
 854              		.cfi_offset 14, -4
 855 000a 0446     		mov	r4, r0
 856              		.loc 1 515 3 is_stmt 1 discriminator 2 view .LVU251
 857 000c 0123     		movs	r3, #1
 858 000e 80F82430 		strb	r3, [r0, #36]
 859              		.loc 1 515 3 discriminator 2 view .LVU252
 516:Drivers/STM32F1xx_HAL_Driver/Src/stm32f1xx_hal_adc_ex.c ****     
 517:Drivers/STM32F1xx_HAL_Driver/Src/stm32f1xx_hal_adc_ex.c ****   /* Enable the ADC peripheral */
 518:Drivers/STM32F1xx_HAL_Driver/Src/stm32f1xx_hal_adc_ex.c ****   tmp_hal_status = ADC_Enable(hadc);
 860              		.loc 1 518 3 discriminator 2 view .LVU253
 861              		.loc 1 518 20 is_stmt 0 discriminator 2 view .LVU254
 862 0012 FFF7FEFF 		bl	ADC_Enable
 863              	.LVL43:
 519:Drivers/STM32F1xx_HAL_Driver/Src/stm32f1xx_hal_adc_ex.c ****   
 520:Drivers/STM32F1xx_HAL_Driver/Src/stm32f1xx_hal_adc_ex.c ****   /* Start conversion if ADC is effectively enabled */
 521:Drivers/STM32F1xx_HAL_Driver/Src/stm32f1xx_hal_adc_ex.c ****   if (tmp_hal_status == HAL_OK)
 864              		.loc 1 521 3 is_stmt 1 discriminator 2 view .LVU255
ARM GAS  /tmp/ccKo6yLr.s 			page 27


 865              		.loc 1 521 6 is_stmt 0 discriminator 2 view .LVU256
 866 0016 0028     		cmp	r0, #0
 867 0018 4AD1     		bne	.L82
 522:Drivers/STM32F1xx_HAL_Driver/Src/stm32f1xx_hal_adc_ex.c ****   {
 523:Drivers/STM32F1xx_HAL_Driver/Src/stm32f1xx_hal_adc_ex.c ****     /* Set ADC state                                                          */
 524:Drivers/STM32F1xx_HAL_Driver/Src/stm32f1xx_hal_adc_ex.c ****     /* - Clear state bitfield related to injected group conversion results    */
 525:Drivers/STM32F1xx_HAL_Driver/Src/stm32f1xx_hal_adc_ex.c ****     /* - Set state bitfield related to injected operation                     */
 526:Drivers/STM32F1xx_HAL_Driver/Src/stm32f1xx_hal_adc_ex.c ****     ADC_STATE_CLR_SET(hadc->State,
 868              		.loc 1 526 5 is_stmt 1 view .LVU257
 869 001a A36A     		ldr	r3, [r4, #40]
 870 001c 23F44053 		bic	r3, r3, #12288
 871 0020 23F00103 		bic	r3, r3, #1
 872 0024 43F48053 		orr	r3, r3, #4096
 873 0028 A362     		str	r3, [r4, #40]
 527:Drivers/STM32F1xx_HAL_Driver/Src/stm32f1xx_hal_adc_ex.c ****                       HAL_ADC_STATE_READY | HAL_ADC_STATE_INJ_EOC,
 528:Drivers/STM32F1xx_HAL_Driver/Src/stm32f1xx_hal_adc_ex.c ****                       HAL_ADC_STATE_INJ_BUSY);
 529:Drivers/STM32F1xx_HAL_Driver/Src/stm32f1xx_hal_adc_ex.c ****     
 530:Drivers/STM32F1xx_HAL_Driver/Src/stm32f1xx_hal_adc_ex.c ****     /* Case of independent mode or multimode (for devices with several ADCs): */
 531:Drivers/STM32F1xx_HAL_Driver/Src/stm32f1xx_hal_adc_ex.c ****     /* Set multimode state.                                                   */
 532:Drivers/STM32F1xx_HAL_Driver/Src/stm32f1xx_hal_adc_ex.c ****     if (ADC_NONMULTIMODE_OR_MULTIMODEMASTER(hadc))
 874              		.loc 1 532 5 view .LVU258
 875              		.loc 1 532 9 is_stmt 0 view .LVU259
 876 002a 2268     		ldr	r2, [r4]
 877              		.loc 1 532 8 view .LVU260
 878 002c 234B     		ldr	r3, .L97
 879 002e 9A42     		cmp	r2, r3
 880 0030 24D0     		beq	.L94
 881              	.L83:
 533:Drivers/STM32F1xx_HAL_Driver/Src/stm32f1xx_hal_adc_ex.c ****     {
 534:Drivers/STM32F1xx_HAL_Driver/Src/stm32f1xx_hal_adc_ex.c ****       CLEAR_BIT(hadc->State, HAL_ADC_STATE_MULTIMODE_SLAVE);
 882              		.loc 1 534 7 is_stmt 1 view .LVU261
 883 0032 A36A     		ldr	r3, [r4, #40]
 884 0034 23F48013 		bic	r3, r3, #1048576
 885 0038 A362     		str	r3, [r4, #40]
 886              	.L85:
 535:Drivers/STM32F1xx_HAL_Driver/Src/stm32f1xx_hal_adc_ex.c ****     }
 536:Drivers/STM32F1xx_HAL_Driver/Src/stm32f1xx_hal_adc_ex.c ****     else
 537:Drivers/STM32F1xx_HAL_Driver/Src/stm32f1xx_hal_adc_ex.c ****     {
 538:Drivers/STM32F1xx_HAL_Driver/Src/stm32f1xx_hal_adc_ex.c ****       SET_BIT(hadc->State, HAL_ADC_STATE_MULTIMODE_SLAVE);
 539:Drivers/STM32F1xx_HAL_Driver/Src/stm32f1xx_hal_adc_ex.c ****     }
 540:Drivers/STM32F1xx_HAL_Driver/Src/stm32f1xx_hal_adc_ex.c ****     
 541:Drivers/STM32F1xx_HAL_Driver/Src/stm32f1xx_hal_adc_ex.c ****     /* Check if a regular conversion is ongoing */
 542:Drivers/STM32F1xx_HAL_Driver/Src/stm32f1xx_hal_adc_ex.c ****     /* Note: On this device, there is no ADC error code fields related to     */
 543:Drivers/STM32F1xx_HAL_Driver/Src/stm32f1xx_hal_adc_ex.c ****     /*       conversions on group injected only. In case of conversion on     */
 544:Drivers/STM32F1xx_HAL_Driver/Src/stm32f1xx_hal_adc_ex.c ****     /*       going on group regular, no error code is reset.                  */
 545:Drivers/STM32F1xx_HAL_Driver/Src/stm32f1xx_hal_adc_ex.c ****     if (HAL_IS_BIT_CLR(hadc->State, HAL_ADC_STATE_REG_BUSY))
 887              		.loc 1 545 5 view .LVU262
 888              		.loc 1 545 9 is_stmt 0 view .LVU263
 889 003a A36A     		ldr	r3, [r4, #40]
 890              		.loc 1 545 8 view .LVU264
 891 003c 13F4807F 		tst	r3, #256
 892 0040 01D1     		bne	.L86
 546:Drivers/STM32F1xx_HAL_Driver/Src/stm32f1xx_hal_adc_ex.c ****     {
 547:Drivers/STM32F1xx_HAL_Driver/Src/stm32f1xx_hal_adc_ex.c ****       /* Reset ADC all error code fields */
 548:Drivers/STM32F1xx_HAL_Driver/Src/stm32f1xx_hal_adc_ex.c ****       ADC_CLEAR_ERRORCODE(hadc);
 893              		.loc 1 548 7 is_stmt 1 view .LVU265
 894 0042 0023     		movs	r3, #0
ARM GAS  /tmp/ccKo6yLr.s 			page 28


 895 0044 E362     		str	r3, [r4, #44]
 896              	.L86:
 549:Drivers/STM32F1xx_HAL_Driver/Src/stm32f1xx_hal_adc_ex.c ****     }
 550:Drivers/STM32F1xx_HAL_Driver/Src/stm32f1xx_hal_adc_ex.c ****     
 551:Drivers/STM32F1xx_HAL_Driver/Src/stm32f1xx_hal_adc_ex.c ****     /* Process unlocked */
 552:Drivers/STM32F1xx_HAL_Driver/Src/stm32f1xx_hal_adc_ex.c ****     /* Unlock before starting ADC conversions: in case of potential           */
 553:Drivers/STM32F1xx_HAL_Driver/Src/stm32f1xx_hal_adc_ex.c ****     /* interruption, to let the process to ADC IRQ Handler.                   */
 554:Drivers/STM32F1xx_HAL_Driver/Src/stm32f1xx_hal_adc_ex.c ****     __HAL_UNLOCK(hadc);
 897              		.loc 1 554 5 view .LVU266
 898              		.loc 1 554 5 view .LVU267
 899 0046 0023     		movs	r3, #0
 900 0048 84F82430 		strb	r3, [r4, #36]
 901              		.loc 1 554 5 view .LVU268
 555:Drivers/STM32F1xx_HAL_Driver/Src/stm32f1xx_hal_adc_ex.c ****     
 556:Drivers/STM32F1xx_HAL_Driver/Src/stm32f1xx_hal_adc_ex.c ****     /* Clear injected group conversion flag */
 557:Drivers/STM32F1xx_HAL_Driver/Src/stm32f1xx_hal_adc_ex.c ****     /* (To ensure of no unknown state from potential previous ADC operations) */
 558:Drivers/STM32F1xx_HAL_Driver/Src/stm32f1xx_hal_adc_ex.c ****     __HAL_ADC_CLEAR_FLAG(hadc, ADC_FLAG_JEOC);
 902              		.loc 1 558 5 view .LVU269
 903 004c 6FF00403 		mvn	r3, #4
 904 0050 1360     		str	r3, [r2]
 559:Drivers/STM32F1xx_HAL_Driver/Src/stm32f1xx_hal_adc_ex.c ****     
 560:Drivers/STM32F1xx_HAL_Driver/Src/stm32f1xx_hal_adc_ex.c ****     /* Enable end of conversion interrupt for injected channels */
 561:Drivers/STM32F1xx_HAL_Driver/Src/stm32f1xx_hal_adc_ex.c ****     __HAL_ADC_ENABLE_IT(hadc, ADC_IT_JEOC);
 905              		.loc 1 561 5 view .LVU270
 906 0052 2268     		ldr	r2, [r4]
 907 0054 5368     		ldr	r3, [r2, #4]
 908 0056 43F08003 		orr	r3, r3, #128
 909 005a 5360     		str	r3, [r2, #4]
 562:Drivers/STM32F1xx_HAL_Driver/Src/stm32f1xx_hal_adc_ex.c ****     
 563:Drivers/STM32F1xx_HAL_Driver/Src/stm32f1xx_hal_adc_ex.c ****     /* Start conversion of injected group if software start has been selected */
 564:Drivers/STM32F1xx_HAL_Driver/Src/stm32f1xx_hal_adc_ex.c ****     /* and if automatic injected conversion is disabled.                      */
 565:Drivers/STM32F1xx_HAL_Driver/Src/stm32f1xx_hal_adc_ex.c ****     /* If external trigger has been selected, conversion will start at next   */
 566:Drivers/STM32F1xx_HAL_Driver/Src/stm32f1xx_hal_adc_ex.c ****     /* trigger event.                                                         */
 567:Drivers/STM32F1xx_HAL_Driver/Src/stm32f1xx_hal_adc_ex.c ****     /* If automatic injected conversion is enabled, conversion will start     */
 568:Drivers/STM32F1xx_HAL_Driver/Src/stm32f1xx_hal_adc_ex.c ****     /* after next regular group conversion.                                   */
 569:Drivers/STM32F1xx_HAL_Driver/Src/stm32f1xx_hal_adc_ex.c ****     if (HAL_IS_BIT_CLR(hadc->Instance->CR1, ADC_CR1_JAUTO))
 910              		.loc 1 569 5 view .LVU271
 911              		.loc 1 569 9 is_stmt 0 view .LVU272
 912 005c 2368     		ldr	r3, [r4]
 913 005e 5A68     		ldr	r2, [r3, #4]
 914              		.loc 1 569 8 view .LVU273
 915 0060 12F4806F 		tst	r2, #1024
 916 0064 27D1     		bne	.L81
 570:Drivers/STM32F1xx_HAL_Driver/Src/stm32f1xx_hal_adc_ex.c ****     {
 571:Drivers/STM32F1xx_HAL_Driver/Src/stm32f1xx_hal_adc_ex.c ****       if (ADC_IS_SOFTWARE_START_INJECTED(hadc)     &&
 917              		.loc 1 571 7 is_stmt 1 view .LVU274
 918              		.loc 1 571 11 is_stmt 0 view .LVU275
 919 0066 9A68     		ldr	r2, [r3, #8]
 920 0068 02F4E042 		and	r2, r2, #28672
 921              		.loc 1 571 10 view .LVU276
 922 006c B2F5E04F 		cmp	r2, #28672
 923 0070 0FD0     		beq	.L95
 924              	.L87:
 572:Drivers/STM32F1xx_HAL_Driver/Src/stm32f1xx_hal_adc_ex.c ****           ADC_NONMULTIMODE_OR_MULTIMODEMASTER(hadc)  )
 573:Drivers/STM32F1xx_HAL_Driver/Src/stm32f1xx_hal_adc_ex.c ****       {
 574:Drivers/STM32F1xx_HAL_Driver/Src/stm32f1xx_hal_adc_ex.c ****         /* Start ADC conversion on injected group with SW start */
 575:Drivers/STM32F1xx_HAL_Driver/Src/stm32f1xx_hal_adc_ex.c ****         SET_BIT(hadc->Instance->CR2, (ADC_CR2_JSWSTART | ADC_CR2_JEXTTRIG));
ARM GAS  /tmp/ccKo6yLr.s 			page 29


 576:Drivers/STM32F1xx_HAL_Driver/Src/stm32f1xx_hal_adc_ex.c ****       }
 577:Drivers/STM32F1xx_HAL_Driver/Src/stm32f1xx_hal_adc_ex.c ****       else
 578:Drivers/STM32F1xx_HAL_Driver/Src/stm32f1xx_hal_adc_ex.c ****       {
 579:Drivers/STM32F1xx_HAL_Driver/Src/stm32f1xx_hal_adc_ex.c ****         /* Start ADC conversion on injected group with external trigger */
 580:Drivers/STM32F1xx_HAL_Driver/Src/stm32f1xx_hal_adc_ex.c ****         SET_BIT(hadc->Instance->CR2, ADC_CR2_JEXTTRIG);
 925              		.loc 1 580 9 is_stmt 1 view .LVU277
 926 0072 9A68     		ldr	r2, [r3, #8]
 927 0074 42F40042 		orr	r2, r2, #32768
 928 0078 9A60     		str	r2, [r3, #8]
 929 007a 1CE0     		b	.L81
 930              	.L94:
 532:Drivers/STM32F1xx_HAL_Driver/Src/stm32f1xx_hal_adc_ex.c ****     {
 931              		.loc 1 532 9 is_stmt 0 discriminator 1 view .LVU278
 932 007c A3F58063 		sub	r3, r3, #1024
 933 0080 5B68     		ldr	r3, [r3, #4]
 934 0082 13F4702F 		tst	r3, #983040
 935 0086 D4D0     		beq	.L83
 538:Drivers/STM32F1xx_HAL_Driver/Src/stm32f1xx_hal_adc_ex.c ****     }
 936              		.loc 1 538 7 is_stmt 1 view .LVU279
 937 0088 A36A     		ldr	r3, [r4, #40]
 938 008a 43F48013 		orr	r3, r3, #1048576
 939 008e A362     		str	r3, [r4, #40]
 940 0090 D3E7     		b	.L85
 941              	.L95:
 571:Drivers/STM32F1xx_HAL_Driver/Src/stm32f1xx_hal_adc_ex.c ****           ADC_NONMULTIMODE_OR_MULTIMODEMASTER(hadc)  )
 942              		.loc 1 571 52 is_stmt 0 discriminator 1 view .LVU280
 943 0092 0A4A     		ldr	r2, .L97
 944 0094 9342     		cmp	r3, r2
 945 0096 04D0     		beq	.L96
 946              	.L88:
 575:Drivers/STM32F1xx_HAL_Driver/Src/stm32f1xx_hal_adc_ex.c ****       }
 947              		.loc 1 575 9 is_stmt 1 view .LVU281
 948 0098 9A68     		ldr	r2, [r3, #8]
 949 009a 42F40212 		orr	r2, r2, #2129920
 950 009e 9A60     		str	r2, [r3, #8]
 951 00a0 09E0     		b	.L81
 952              	.L96:
 572:Drivers/STM32F1xx_HAL_Driver/Src/stm32f1xx_hal_adc_ex.c ****       {
 953              		.loc 1 572 11 is_stmt 0 discriminator 2 view .LVU282
 954 00a2 A2F58062 		sub	r2, r2, #1024
 955 00a6 5268     		ldr	r2, [r2, #4]
 571:Drivers/STM32F1xx_HAL_Driver/Src/stm32f1xx_hal_adc_ex.c ****           ADC_NONMULTIMODE_OR_MULTIMODEMASTER(hadc)  )
 956              		.loc 1 571 52 discriminator 2 view .LVU283
 957 00a8 12F4702F 		tst	r2, #983040
 958 00ac E1D1     		bne	.L87
 959 00ae F3E7     		b	.L88
 960              	.L82:
 581:Drivers/STM32F1xx_HAL_Driver/Src/stm32f1xx_hal_adc_ex.c ****       }
 582:Drivers/STM32F1xx_HAL_Driver/Src/stm32f1xx_hal_adc_ex.c ****     }
 583:Drivers/STM32F1xx_HAL_Driver/Src/stm32f1xx_hal_adc_ex.c ****   }
 584:Drivers/STM32F1xx_HAL_Driver/Src/stm32f1xx_hal_adc_ex.c ****   else
 585:Drivers/STM32F1xx_HAL_Driver/Src/stm32f1xx_hal_adc_ex.c ****   {
 586:Drivers/STM32F1xx_HAL_Driver/Src/stm32f1xx_hal_adc_ex.c ****     /* Process unlocked */
 587:Drivers/STM32F1xx_HAL_Driver/Src/stm32f1xx_hal_adc_ex.c ****     __HAL_UNLOCK(hadc);
 961              		.loc 1 587 5 is_stmt 1 view .LVU284
 962              		.loc 1 587 5 view .LVU285
 963 00b0 0023     		movs	r3, #0
ARM GAS  /tmp/ccKo6yLr.s 			page 30


 964 00b2 84F82430 		strb	r3, [r4, #36]
 965              	.L81:
 588:Drivers/STM32F1xx_HAL_Driver/Src/stm32f1xx_hal_adc_ex.c ****   }
 589:Drivers/STM32F1xx_HAL_Driver/Src/stm32f1xx_hal_adc_ex.c ****   
 590:Drivers/STM32F1xx_HAL_Driver/Src/stm32f1xx_hal_adc_ex.c ****   /* Return function status */
 591:Drivers/STM32F1xx_HAL_Driver/Src/stm32f1xx_hal_adc_ex.c ****   return tmp_hal_status;
 592:Drivers/STM32F1xx_HAL_Driver/Src/stm32f1xx_hal_adc_ex.c **** }
 966              		.loc 1 592 1 is_stmt 0 view .LVU286
 967 00b6 10BD     		pop	{r4, pc}
 968              	.LVL44:
 969              	.L89:
 970              	.LCFI13:
 971              		.cfi_def_cfa_offset 0
 972              		.cfi_restore 4
 973              		.cfi_restore 14
 515:Drivers/STM32F1xx_HAL_Driver/Src/stm32f1xx_hal_adc_ex.c ****     
 974              		.loc 1 515 3 view .LVU287
 975 00b8 0220     		movs	r0, #2
 976              	.LVL45:
 977              		.loc 1 592 1 view .LVU288
 978 00ba 7047     		bx	lr
 979              	.L98:
 980              		.align	2
 981              	.L97:
 982 00bc 00280140 		.word	1073817600
 983              		.cfi_endproc
 984              	.LFE69:
 986              		.section	.text.HAL_ADCEx_InjectedStop_IT,"ax",%progbits
 987              		.align	1
 988              		.global	HAL_ADCEx_InjectedStop_IT
 989              		.syntax unified
 990              		.thumb
 991              		.thumb_func
 992              		.fpu softvfp
 994              	HAL_ADCEx_InjectedStop_IT:
 995              	.LVL46:
 996              	.LFB70:
 593:Drivers/STM32F1xx_HAL_Driver/Src/stm32f1xx_hal_adc_ex.c **** 
 594:Drivers/STM32F1xx_HAL_Driver/Src/stm32f1xx_hal_adc_ex.c **** /**
 595:Drivers/STM32F1xx_HAL_Driver/Src/stm32f1xx_hal_adc_ex.c ****   * @brief  Stop conversion of injected channels, disable interruption of 
 596:Drivers/STM32F1xx_HAL_Driver/Src/stm32f1xx_hal_adc_ex.c ****   *         end-of-conversion. Disable ADC peripheral if no regular conversion
 597:Drivers/STM32F1xx_HAL_Driver/Src/stm32f1xx_hal_adc_ex.c ****   *         is on going.
 598:Drivers/STM32F1xx_HAL_Driver/Src/stm32f1xx_hal_adc_ex.c ****   * @note   If ADC must be disabled and if conversion is on going on 
 599:Drivers/STM32F1xx_HAL_Driver/Src/stm32f1xx_hal_adc_ex.c ****   *         regular group, function HAL_ADC_Stop must be used to stop both
 600:Drivers/STM32F1xx_HAL_Driver/Src/stm32f1xx_hal_adc_ex.c ****   *         injected and regular groups, and disable the ADC.
 601:Drivers/STM32F1xx_HAL_Driver/Src/stm32f1xx_hal_adc_ex.c ****   * @note   If injected group mode auto-injection is enabled,
 602:Drivers/STM32F1xx_HAL_Driver/Src/stm32f1xx_hal_adc_ex.c ****   *         function HAL_ADC_Stop must be used.
 603:Drivers/STM32F1xx_HAL_Driver/Src/stm32f1xx_hal_adc_ex.c ****   * @param  hadc: ADC handle
 604:Drivers/STM32F1xx_HAL_Driver/Src/stm32f1xx_hal_adc_ex.c ****   * @retval None
 605:Drivers/STM32F1xx_HAL_Driver/Src/stm32f1xx_hal_adc_ex.c ****   */
 606:Drivers/STM32F1xx_HAL_Driver/Src/stm32f1xx_hal_adc_ex.c **** HAL_StatusTypeDef HAL_ADCEx_InjectedStop_IT(ADC_HandleTypeDef* hadc)
 607:Drivers/STM32F1xx_HAL_Driver/Src/stm32f1xx_hal_adc_ex.c **** {
 997              		.loc 1 607 1 is_stmt 1 view -0
 998              		.cfi_startproc
 999              		@ args = 0, pretend = 0, frame = 0
 1000              		@ frame_needed = 0, uses_anonymous_args = 0
 608:Drivers/STM32F1xx_HAL_Driver/Src/stm32f1xx_hal_adc_ex.c ****   HAL_StatusTypeDef tmp_hal_status = HAL_OK;
ARM GAS  /tmp/ccKo6yLr.s 			page 31


 1001              		.loc 1 608 3 view .LVU290
 609:Drivers/STM32F1xx_HAL_Driver/Src/stm32f1xx_hal_adc_ex.c ****   
 610:Drivers/STM32F1xx_HAL_Driver/Src/stm32f1xx_hal_adc_ex.c ****   /* Check the parameters */
 611:Drivers/STM32F1xx_HAL_Driver/Src/stm32f1xx_hal_adc_ex.c ****   assert_param(IS_ADC_ALL_INSTANCE(hadc->Instance));
 1002              		.loc 1 611 3 view .LVU291
 612:Drivers/STM32F1xx_HAL_Driver/Src/stm32f1xx_hal_adc_ex.c **** 
 613:Drivers/STM32F1xx_HAL_Driver/Src/stm32f1xx_hal_adc_ex.c ****   /* Process locked */
 614:Drivers/STM32F1xx_HAL_Driver/Src/stm32f1xx_hal_adc_ex.c ****   __HAL_LOCK(hadc);
 1003              		.loc 1 614 3 view .LVU292
 1004              		.loc 1 614 3 view .LVU293
 1005 0000 90F82430 		ldrb	r3, [r0, #36]	@ zero_extendqisi2
 1006 0004 012B     		cmp	r3, #1
 1007 0006 28D0     		beq	.L103
 607:Drivers/STM32F1xx_HAL_Driver/Src/stm32f1xx_hal_adc_ex.c ****   HAL_StatusTypeDef tmp_hal_status = HAL_OK;
 1008              		.loc 1 607 1 is_stmt 0 discriminator 2 view .LVU294
 1009 0008 10B5     		push	{r4, lr}
 1010              	.LCFI14:
 1011              		.cfi_def_cfa_offset 8
 1012              		.cfi_offset 4, -8
 1013              		.cfi_offset 14, -4
 1014 000a 0446     		mov	r4, r0
 1015              		.loc 1 614 3 is_stmt 1 discriminator 2 view .LVU295
 1016 000c 0123     		movs	r3, #1
 1017 000e 80F82430 		strb	r3, [r0, #36]
 1018              		.loc 1 614 3 discriminator 2 view .LVU296
 615:Drivers/STM32F1xx_HAL_Driver/Src/stm32f1xx_hal_adc_ex.c ****     
 616:Drivers/STM32F1xx_HAL_Driver/Src/stm32f1xx_hal_adc_ex.c ****   /* Stop potential conversion and disable ADC peripheral                     */
 617:Drivers/STM32F1xx_HAL_Driver/Src/stm32f1xx_hal_adc_ex.c ****   /* Conditioned to:                                                          */
 618:Drivers/STM32F1xx_HAL_Driver/Src/stm32f1xx_hal_adc_ex.c ****   /* - No conversion on the other group (regular group) is intended to        */
 619:Drivers/STM32F1xx_HAL_Driver/Src/stm32f1xx_hal_adc_ex.c ****   /*   continue (injected and regular groups stop conversion and ADC disable  */
 620:Drivers/STM32F1xx_HAL_Driver/Src/stm32f1xx_hal_adc_ex.c ****   /*   are common)                                                            */
 621:Drivers/STM32F1xx_HAL_Driver/Src/stm32f1xx_hal_adc_ex.c ****   /* - In case of auto-injection mode, HAL_ADC_Stop must be used.             */ 
 622:Drivers/STM32F1xx_HAL_Driver/Src/stm32f1xx_hal_adc_ex.c ****   if(((hadc->State & HAL_ADC_STATE_REG_BUSY) == RESET)  &&
 1019              		.loc 1 622 3 discriminator 2 view .LVU297
 1020              		.loc 1 622 12 is_stmt 0 discriminator 2 view .LVU298
 1021 0012 836A     		ldr	r3, [r0, #40]
 1022              		.loc 1 622 5 discriminator 2 view .LVU299
 1023 0014 13F4807F 		tst	r3, #256
 1024 0018 04D1     		bne	.L101
 623:Drivers/STM32F1xx_HAL_Driver/Src/stm32f1xx_hal_adc_ex.c ****      HAL_IS_BIT_CLR(hadc->Instance->CR1, ADC_CR1_JAUTO)   )
 1025              		.loc 1 623 6 discriminator 1 view .LVU300
 1026 001a 0368     		ldr	r3, [r0]
 1027 001c 5B68     		ldr	r3, [r3, #4]
 622:Drivers/STM32F1xx_HAL_Driver/Src/stm32f1xx_hal_adc_ex.c ****      HAL_IS_BIT_CLR(hadc->Instance->CR1, ADC_CR1_JAUTO)   )
 1028              		.loc 1 622 57 discriminator 1 view .LVU301
 1029 001e 13F4806F 		tst	r3, #1024
 1030 0022 08D0     		beq	.L108
 1031              	.L101:
 624:Drivers/STM32F1xx_HAL_Driver/Src/stm32f1xx_hal_adc_ex.c ****   {
 625:Drivers/STM32F1xx_HAL_Driver/Src/stm32f1xx_hal_adc_ex.c ****     /* Stop potential conversion on going, on regular and injected groups */
 626:Drivers/STM32F1xx_HAL_Driver/Src/stm32f1xx_hal_adc_ex.c ****     /* Disable ADC peripheral */
 627:Drivers/STM32F1xx_HAL_Driver/Src/stm32f1xx_hal_adc_ex.c ****     tmp_hal_status = ADC_ConversionStop_Disable(hadc);
 628:Drivers/STM32F1xx_HAL_Driver/Src/stm32f1xx_hal_adc_ex.c ****     
 629:Drivers/STM32F1xx_HAL_Driver/Src/stm32f1xx_hal_adc_ex.c ****     /* Check if ADC is effectively disabled */
 630:Drivers/STM32F1xx_HAL_Driver/Src/stm32f1xx_hal_adc_ex.c ****     if (tmp_hal_status == HAL_OK)
 631:Drivers/STM32F1xx_HAL_Driver/Src/stm32f1xx_hal_adc_ex.c ****     {
 632:Drivers/STM32F1xx_HAL_Driver/Src/stm32f1xx_hal_adc_ex.c ****       /* Disable ADC end of conversion interrupt for injected channels */
ARM GAS  /tmp/ccKo6yLr.s 			page 32


 633:Drivers/STM32F1xx_HAL_Driver/Src/stm32f1xx_hal_adc_ex.c ****       __HAL_ADC_DISABLE_IT(hadc, ADC_IT_JEOC);
 634:Drivers/STM32F1xx_HAL_Driver/Src/stm32f1xx_hal_adc_ex.c ****       
 635:Drivers/STM32F1xx_HAL_Driver/Src/stm32f1xx_hal_adc_ex.c ****       /* Set ADC state */
 636:Drivers/STM32F1xx_HAL_Driver/Src/stm32f1xx_hal_adc_ex.c ****       ADC_STATE_CLR_SET(hadc->State,
 637:Drivers/STM32F1xx_HAL_Driver/Src/stm32f1xx_hal_adc_ex.c ****                         HAL_ADC_STATE_REG_BUSY | HAL_ADC_STATE_INJ_BUSY,
 638:Drivers/STM32F1xx_HAL_Driver/Src/stm32f1xx_hal_adc_ex.c ****                         HAL_ADC_STATE_READY);
 639:Drivers/STM32F1xx_HAL_Driver/Src/stm32f1xx_hal_adc_ex.c ****     }
 640:Drivers/STM32F1xx_HAL_Driver/Src/stm32f1xx_hal_adc_ex.c ****   }
 641:Drivers/STM32F1xx_HAL_Driver/Src/stm32f1xx_hal_adc_ex.c ****   else
 642:Drivers/STM32F1xx_HAL_Driver/Src/stm32f1xx_hal_adc_ex.c ****   {
 643:Drivers/STM32F1xx_HAL_Driver/Src/stm32f1xx_hal_adc_ex.c ****     /* Update ADC state machine to error */
 644:Drivers/STM32F1xx_HAL_Driver/Src/stm32f1xx_hal_adc_ex.c ****     SET_BIT(hadc->State, HAL_ADC_STATE_ERROR_CONFIG);
 1032              		.loc 1 644 5 is_stmt 1 view .LVU302
 1033 0024 A36A     		ldr	r3, [r4, #40]
 1034 0026 43F02003 		orr	r3, r3, #32
 1035 002a A362     		str	r3, [r4, #40]
 645:Drivers/STM32F1xx_HAL_Driver/Src/stm32f1xx_hal_adc_ex.c ****       
 646:Drivers/STM32F1xx_HAL_Driver/Src/stm32f1xx_hal_adc_ex.c ****     tmp_hal_status = HAL_ERROR;
 1036              		.loc 1 646 5 view .LVU303
 1037              	.LVL47:
 1038              		.loc 1 646 20 is_stmt 0 view .LVU304
 1039 002c 0120     		movs	r0, #1
 1040              	.LVL48:
 1041              	.L102:
 647:Drivers/STM32F1xx_HAL_Driver/Src/stm32f1xx_hal_adc_ex.c ****   }
 648:Drivers/STM32F1xx_HAL_Driver/Src/stm32f1xx_hal_adc_ex.c ****   
 649:Drivers/STM32F1xx_HAL_Driver/Src/stm32f1xx_hal_adc_ex.c ****   /* Process unlocked */
 650:Drivers/STM32F1xx_HAL_Driver/Src/stm32f1xx_hal_adc_ex.c ****   __HAL_UNLOCK(hadc);
 1042              		.loc 1 650 3 is_stmt 1 view .LVU305
 1043              		.loc 1 650 3 view .LVU306
 1044 002e 0023     		movs	r3, #0
 1045 0030 84F82430 		strb	r3, [r4, #36]
 1046              		.loc 1 650 3 view .LVU307
 651:Drivers/STM32F1xx_HAL_Driver/Src/stm32f1xx_hal_adc_ex.c ****   
 652:Drivers/STM32F1xx_HAL_Driver/Src/stm32f1xx_hal_adc_ex.c ****   /* Return function status */
 653:Drivers/STM32F1xx_HAL_Driver/Src/stm32f1xx_hal_adc_ex.c ****   return tmp_hal_status;
 1047              		.loc 1 653 3 view .LVU308
 654:Drivers/STM32F1xx_HAL_Driver/Src/stm32f1xx_hal_adc_ex.c **** }
 1048              		.loc 1 654 1 is_stmt 0 view .LVU309
 1049 0034 10BD     		pop	{r4, pc}
 1050              	.LVL49:
 1051              	.L108:
 627:Drivers/STM32F1xx_HAL_Driver/Src/stm32f1xx_hal_adc_ex.c ****     
 1052              		.loc 1 627 5 is_stmt 1 view .LVU310
 627:Drivers/STM32F1xx_HAL_Driver/Src/stm32f1xx_hal_adc_ex.c ****     
 1053              		.loc 1 627 22 is_stmt 0 view .LVU311
 1054 0036 FFF7FEFF 		bl	ADC_ConversionStop_Disable
 1055              	.LVL50:
 630:Drivers/STM32F1xx_HAL_Driver/Src/stm32f1xx_hal_adc_ex.c ****     {
 1056              		.loc 1 630 5 is_stmt 1 view .LVU312
 630:Drivers/STM32F1xx_HAL_Driver/Src/stm32f1xx_hal_adc_ex.c ****     {
 1057              		.loc 1 630 8 is_stmt 0 view .LVU313
 1058 003a 0028     		cmp	r0, #0
 1059 003c F7D1     		bne	.L102
 633:Drivers/STM32F1xx_HAL_Driver/Src/stm32f1xx_hal_adc_ex.c ****       
 1060              		.loc 1 633 7 is_stmt 1 view .LVU314
 1061 003e 2268     		ldr	r2, [r4]
ARM GAS  /tmp/ccKo6yLr.s 			page 33


 1062 0040 5368     		ldr	r3, [r2, #4]
 1063 0042 23F08003 		bic	r3, r3, #128
 1064 0046 5360     		str	r3, [r2, #4]
 636:Drivers/STM32F1xx_HAL_Driver/Src/stm32f1xx_hal_adc_ex.c ****                         HAL_ADC_STATE_REG_BUSY | HAL_ADC_STATE_INJ_BUSY,
 1065              		.loc 1 636 7 view .LVU315
 1066 0048 A36A     		ldr	r3, [r4, #40]
 1067 004a 23F48853 		bic	r3, r3, #4352
 1068 004e 23F00103 		bic	r3, r3, #1
 1069 0052 43F00103 		orr	r3, r3, #1
 1070 0056 A362     		str	r3, [r4, #40]
 1071 0058 E9E7     		b	.L102
 1072              	.LVL51:
 1073              	.L103:
 1074              	.LCFI15:
 1075              		.cfi_def_cfa_offset 0
 1076              		.cfi_restore 4
 1077              		.cfi_restore 14
 614:Drivers/STM32F1xx_HAL_Driver/Src/stm32f1xx_hal_adc_ex.c ****     
 1078              		.loc 1 614 3 is_stmt 0 view .LVU316
 1079 005a 0220     		movs	r0, #2
 1080              	.LVL52:
 1081              		.loc 1 654 1 view .LVU317
 1082 005c 7047     		bx	lr
 1083              		.cfi_endproc
 1084              	.LFE70:
 1086              		.section	.text.HAL_ADCEx_MultiModeStart_DMA,"ax",%progbits
 1087              		.align	1
 1088              		.global	HAL_ADCEx_MultiModeStart_DMA
 1089              		.syntax unified
 1090              		.thumb
 1091              		.thumb_func
 1092              		.fpu softvfp
 1094              	HAL_ADCEx_MultiModeStart_DMA:
 1095              	.LVL53:
 1096              	.LFB71:
 655:Drivers/STM32F1xx_HAL_Driver/Src/stm32f1xx_hal_adc_ex.c **** 
 656:Drivers/STM32F1xx_HAL_Driver/Src/stm32f1xx_hal_adc_ex.c **** #if defined (STM32F103x6) || defined (STM32F103xB) || defined (STM32F105xC) || defined (STM32F107xC
 657:Drivers/STM32F1xx_HAL_Driver/Src/stm32f1xx_hal_adc_ex.c **** /**
 658:Drivers/STM32F1xx_HAL_Driver/Src/stm32f1xx_hal_adc_ex.c ****   * @brief  Enables ADC, starts conversion of regular group and transfers result
 659:Drivers/STM32F1xx_HAL_Driver/Src/stm32f1xx_hal_adc_ex.c ****   *         through DMA.
 660:Drivers/STM32F1xx_HAL_Driver/Src/stm32f1xx_hal_adc_ex.c ****   *         Multimode must have been previously configured using 
 661:Drivers/STM32F1xx_HAL_Driver/Src/stm32f1xx_hal_adc_ex.c ****   *         HAL_ADCEx_MultiModeConfigChannel() function.
 662:Drivers/STM32F1xx_HAL_Driver/Src/stm32f1xx_hal_adc_ex.c ****   *         Interruptions enabled in this function:
 663:Drivers/STM32F1xx_HAL_Driver/Src/stm32f1xx_hal_adc_ex.c ****   *          - DMA transfer complete
 664:Drivers/STM32F1xx_HAL_Driver/Src/stm32f1xx_hal_adc_ex.c ****   *          - DMA half transfer
 665:Drivers/STM32F1xx_HAL_Driver/Src/stm32f1xx_hal_adc_ex.c ****   *         Each of these interruptions has its dedicated callback function.
 666:Drivers/STM32F1xx_HAL_Driver/Src/stm32f1xx_hal_adc_ex.c ****   * @note:  On STM32F1 devices, ADC slave regular group must be configured 
 667:Drivers/STM32F1xx_HAL_Driver/Src/stm32f1xx_hal_adc_ex.c ****   *         with conversion trigger ADC_SOFTWARE_START.
 668:Drivers/STM32F1xx_HAL_Driver/Src/stm32f1xx_hal_adc_ex.c ****   * @note:  ADC slave can be enabled preliminarily using single-mode  
 669:Drivers/STM32F1xx_HAL_Driver/Src/stm32f1xx_hal_adc_ex.c ****   *         HAL_ADC_Start() function.
 670:Drivers/STM32F1xx_HAL_Driver/Src/stm32f1xx_hal_adc_ex.c ****   * @param  hadc: ADC handle of ADC master (handle of ADC slave must not be used)
 671:Drivers/STM32F1xx_HAL_Driver/Src/stm32f1xx_hal_adc_ex.c ****   * @param  pData: The destination Buffer address.
 672:Drivers/STM32F1xx_HAL_Driver/Src/stm32f1xx_hal_adc_ex.c ****   * @param  Length: The length of data to be transferred from ADC peripheral to memory.
 673:Drivers/STM32F1xx_HAL_Driver/Src/stm32f1xx_hal_adc_ex.c ****   * @retval None
 674:Drivers/STM32F1xx_HAL_Driver/Src/stm32f1xx_hal_adc_ex.c ****   */
 675:Drivers/STM32F1xx_HAL_Driver/Src/stm32f1xx_hal_adc_ex.c **** HAL_StatusTypeDef HAL_ADCEx_MultiModeStart_DMA(ADC_HandleTypeDef* hadc, uint32_t* pData, uint32_t L
 676:Drivers/STM32F1xx_HAL_Driver/Src/stm32f1xx_hal_adc_ex.c **** {
ARM GAS  /tmp/ccKo6yLr.s 			page 34


 1097              		.loc 1 676 1 is_stmt 1 view -0
 1098              		.cfi_startproc
 1099              		@ args = 0, pretend = 0, frame = 48
 1100              		@ frame_needed = 0, uses_anonymous_args = 0
 1101              		.loc 1 676 1 is_stmt 0 view .LVU319
 1102 0000 F0B5     		push	{r4, r5, r6, r7, lr}
 1103              	.LCFI16:
 1104              		.cfi_def_cfa_offset 20
 1105              		.cfi_offset 4, -20
 1106              		.cfi_offset 5, -16
 1107              		.cfi_offset 6, -12
 1108              		.cfi_offset 7, -8
 1109              		.cfi_offset 14, -4
 1110 0002 8DB0     		sub	sp, sp, #52
 1111              	.LCFI17:
 1112              		.cfi_def_cfa_offset 72
 1113 0004 0446     		mov	r4, r0
 1114 0006 0D46     		mov	r5, r1
 1115 0008 1746     		mov	r7, r2
 677:Drivers/STM32F1xx_HAL_Driver/Src/stm32f1xx_hal_adc_ex.c ****   HAL_StatusTypeDef tmp_hal_status = HAL_OK;
 1116              		.loc 1 677 3 is_stmt 1 view .LVU320
 1117              	.LVL54:
 678:Drivers/STM32F1xx_HAL_Driver/Src/stm32f1xx_hal_adc_ex.c ****   ADC_HandleTypeDef tmphadcSlave={0};
 1118              		.loc 1 678 3 view .LVU321
 1119              		.loc 1 678 21 is_stmt 0 view .LVU322
 1120 000a 3022     		movs	r2, #48
 1121              	.LVL55:
 1122              		.loc 1 678 21 view .LVU323
 1123 000c 0021     		movs	r1, #0
 1124              	.LVL56:
 1125              		.loc 1 678 21 view .LVU324
 1126 000e 6846     		mov	r0, sp
 1127              	.LVL57:
 1128              		.loc 1 678 21 view .LVU325
 1129 0010 FFF7FEFF 		bl	memset
 1130              	.LVL58:
 679:Drivers/STM32F1xx_HAL_Driver/Src/stm32f1xx_hal_adc_ex.c **** 
 680:Drivers/STM32F1xx_HAL_Driver/Src/stm32f1xx_hal_adc_ex.c ****   /* Check the parameters */
 681:Drivers/STM32F1xx_HAL_Driver/Src/stm32f1xx_hal_adc_ex.c ****   assert_param(IS_ADC_MULTIMODE_MASTER_INSTANCE(hadc->Instance));
 1131              		.loc 1 681 3 is_stmt 1 view .LVU326
 682:Drivers/STM32F1xx_HAL_Driver/Src/stm32f1xx_hal_adc_ex.c ****   assert_param(IS_FUNCTIONAL_STATE(hadc->Init.ContinuousConvMode));
 1132              		.loc 1 682 3 view .LVU327
 683:Drivers/STM32F1xx_HAL_Driver/Src/stm32f1xx_hal_adc_ex.c ****   
 684:Drivers/STM32F1xx_HAL_Driver/Src/stm32f1xx_hal_adc_ex.c ****   /* Process locked */
 685:Drivers/STM32F1xx_HAL_Driver/Src/stm32f1xx_hal_adc_ex.c ****   __HAL_LOCK(hadc);
 1133              		.loc 1 685 3 view .LVU328
 1134              		.loc 1 685 3 view .LVU329
 1135 0014 94F82410 		ldrb	r1, [r4, #36]	@ zero_extendqisi2
 1136 0018 0129     		cmp	r1, #1
 1137 001a 65D0     		beq	.L116
 1138              		.loc 1 685 3 discriminator 2 view .LVU330
 1139 001c 0123     		movs	r3, #1
 1140 001e 84F82430 		strb	r3, [r4, #36]
 1141              		.loc 1 685 3 discriminator 2 view .LVU331
 686:Drivers/STM32F1xx_HAL_Driver/Src/stm32f1xx_hal_adc_ex.c **** 
 687:Drivers/STM32F1xx_HAL_Driver/Src/stm32f1xx_hal_adc_ex.c ****   /* Set a temporary handle of the ADC slave associated to the ADC master     */
 688:Drivers/STM32F1xx_HAL_Driver/Src/stm32f1xx_hal_adc_ex.c ****   ADC_MULTI_SLAVE(hadc, &tmphadcSlave);
ARM GAS  /tmp/ccKo6yLr.s 			page 35


 1142              		.loc 1 688 3 discriminator 2 view .LVU332
 1143 0022 3249     		ldr	r1, .L120
 1144 0024 0091     		str	r1, [sp]
 689:Drivers/STM32F1xx_HAL_Driver/Src/stm32f1xx_hal_adc_ex.c ****   
 690:Drivers/STM32F1xx_HAL_Driver/Src/stm32f1xx_hal_adc_ex.c ****   /* On STM32F1 devices, ADC slave regular group must be configured with      */
 691:Drivers/STM32F1xx_HAL_Driver/Src/stm32f1xx_hal_adc_ex.c ****   /* conversion trigger ADC_SOFTWARE_START.                                   */
 692:Drivers/STM32F1xx_HAL_Driver/Src/stm32f1xx_hal_adc_ex.c ****   /* Note: External trigger of ADC slave must be enabled, it is already done  */
 693:Drivers/STM32F1xx_HAL_Driver/Src/stm32f1xx_hal_adc_ex.c ****   /*       into function "HAL_ADC_Init()".                                    */
 694:Drivers/STM32F1xx_HAL_Driver/Src/stm32f1xx_hal_adc_ex.c ****   if(!ADC_IS_SOFTWARE_START_REGULAR(&tmphadcSlave))  
 1145              		.loc 1 694 3 discriminator 2 view .LVU333
 1146              		.loc 1 694 7 is_stmt 0 discriminator 2 view .LVU334
 1147 0026 8868     		ldr	r0, [r1, #8]
 1148 0028 00F46020 		and	r0, r0, #917504
 1149              		.loc 1 694 5 discriminator 2 view .LVU335
 1150 002c B0F5602F 		cmp	r0, #917504
 1151 0030 0AD0     		beq	.L111
 695:Drivers/STM32F1xx_HAL_Driver/Src/stm32f1xx_hal_adc_ex.c ****   {
 696:Drivers/STM32F1xx_HAL_Driver/Src/stm32f1xx_hal_adc_ex.c ****     /* Update ADC state machine to error */
 697:Drivers/STM32F1xx_HAL_Driver/Src/stm32f1xx_hal_adc_ex.c ****     SET_BIT(hadc->State, HAL_ADC_STATE_ERROR_CONFIG);
 1152              		.loc 1 697 5 is_stmt 1 view .LVU336
 1153 0032 A36A     		ldr	r3, [r4, #40]
 1154 0034 43F02003 		orr	r3, r3, #32
 1155 0038 A362     		str	r3, [r4, #40]
 698:Drivers/STM32F1xx_HAL_Driver/Src/stm32f1xx_hal_adc_ex.c ****     
 699:Drivers/STM32F1xx_HAL_Driver/Src/stm32f1xx_hal_adc_ex.c ****     /* Process unlocked */
 700:Drivers/STM32F1xx_HAL_Driver/Src/stm32f1xx_hal_adc_ex.c ****     __HAL_UNLOCK(hadc);
 1156              		.loc 1 700 5 view .LVU337
 1157              		.loc 1 700 5 view .LVU338
 1158 003a 0023     		movs	r3, #0
 1159 003c 84F82430 		strb	r3, [r4, #36]
 1160              		.loc 1 700 5 view .LVU339
 701:Drivers/STM32F1xx_HAL_Driver/Src/stm32f1xx_hal_adc_ex.c ****     
 702:Drivers/STM32F1xx_HAL_Driver/Src/stm32f1xx_hal_adc_ex.c ****     return HAL_ERROR;
 1161              		.loc 1 702 5 view .LVU340
 1162              		.loc 1 702 12 is_stmt 0 view .LVU341
 1163 0040 0126     		movs	r6, #1
 1164              	.LVL59:
 1165              	.L110:
 703:Drivers/STM32F1xx_HAL_Driver/Src/stm32f1xx_hal_adc_ex.c ****   }
 704:Drivers/STM32F1xx_HAL_Driver/Src/stm32f1xx_hal_adc_ex.c ****   
 705:Drivers/STM32F1xx_HAL_Driver/Src/stm32f1xx_hal_adc_ex.c ****   /* Enable the ADC peripherals: master and slave (in case if not already     */
 706:Drivers/STM32F1xx_HAL_Driver/Src/stm32f1xx_hal_adc_ex.c ****   /* enabled previously)                                                      */
 707:Drivers/STM32F1xx_HAL_Driver/Src/stm32f1xx_hal_adc_ex.c ****   tmp_hal_status = ADC_Enable(hadc);
 708:Drivers/STM32F1xx_HAL_Driver/Src/stm32f1xx_hal_adc_ex.c ****   if (tmp_hal_status == HAL_OK)
 709:Drivers/STM32F1xx_HAL_Driver/Src/stm32f1xx_hal_adc_ex.c ****   {
 710:Drivers/STM32F1xx_HAL_Driver/Src/stm32f1xx_hal_adc_ex.c ****     tmp_hal_status = ADC_Enable(&tmphadcSlave);
 711:Drivers/STM32F1xx_HAL_Driver/Src/stm32f1xx_hal_adc_ex.c ****   }
 712:Drivers/STM32F1xx_HAL_Driver/Src/stm32f1xx_hal_adc_ex.c ****   
 713:Drivers/STM32F1xx_HAL_Driver/Src/stm32f1xx_hal_adc_ex.c ****   /* Start conversion if all ADCs of multimode are effectively enabled */
 714:Drivers/STM32F1xx_HAL_Driver/Src/stm32f1xx_hal_adc_ex.c ****   if (tmp_hal_status == HAL_OK)
 715:Drivers/STM32F1xx_HAL_Driver/Src/stm32f1xx_hal_adc_ex.c ****   {
 716:Drivers/STM32F1xx_HAL_Driver/Src/stm32f1xx_hal_adc_ex.c ****     /* Set ADC state (ADC master)                                             */
 717:Drivers/STM32F1xx_HAL_Driver/Src/stm32f1xx_hal_adc_ex.c ****     /* - Clear state bitfield related to regular group conversion results     */
 718:Drivers/STM32F1xx_HAL_Driver/Src/stm32f1xx_hal_adc_ex.c ****     /* - Set state bitfield related to regular operation                      */
 719:Drivers/STM32F1xx_HAL_Driver/Src/stm32f1xx_hal_adc_ex.c ****     ADC_STATE_CLR_SET(hadc->State,
 720:Drivers/STM32F1xx_HAL_Driver/Src/stm32f1xx_hal_adc_ex.c ****                       HAL_ADC_STATE_READY | HAL_ADC_STATE_REG_EOC | HAL_ADC_STATE_MULTIMODE_SLAVE,
 721:Drivers/STM32F1xx_HAL_Driver/Src/stm32f1xx_hal_adc_ex.c ****                       HAL_ADC_STATE_REG_BUSY);
ARM GAS  /tmp/ccKo6yLr.s 			page 36


 722:Drivers/STM32F1xx_HAL_Driver/Src/stm32f1xx_hal_adc_ex.c ****       
 723:Drivers/STM32F1xx_HAL_Driver/Src/stm32f1xx_hal_adc_ex.c ****     /* If conversions on group regular are also triggering group injected,    */
 724:Drivers/STM32F1xx_HAL_Driver/Src/stm32f1xx_hal_adc_ex.c ****     /* update ADC state.                                                      */
 725:Drivers/STM32F1xx_HAL_Driver/Src/stm32f1xx_hal_adc_ex.c ****     if (READ_BIT(hadc->Instance->CR1, ADC_CR1_JAUTO) != RESET)
 726:Drivers/STM32F1xx_HAL_Driver/Src/stm32f1xx_hal_adc_ex.c ****     {
 727:Drivers/STM32F1xx_HAL_Driver/Src/stm32f1xx_hal_adc_ex.c ****       ADC_STATE_CLR_SET(hadc->State, HAL_ADC_STATE_INJ_EOC, HAL_ADC_STATE_INJ_BUSY);  
 728:Drivers/STM32F1xx_HAL_Driver/Src/stm32f1xx_hal_adc_ex.c ****     }
 729:Drivers/STM32F1xx_HAL_Driver/Src/stm32f1xx_hal_adc_ex.c ****     
 730:Drivers/STM32F1xx_HAL_Driver/Src/stm32f1xx_hal_adc_ex.c ****     /* Process unlocked */
 731:Drivers/STM32F1xx_HAL_Driver/Src/stm32f1xx_hal_adc_ex.c ****     /* Unlock before starting ADC conversions: in case of potential           */
 732:Drivers/STM32F1xx_HAL_Driver/Src/stm32f1xx_hal_adc_ex.c ****     /* interruption, to let the process to ADC IRQ Handler.                   */
 733:Drivers/STM32F1xx_HAL_Driver/Src/stm32f1xx_hal_adc_ex.c ****     __HAL_UNLOCK(hadc);
 734:Drivers/STM32F1xx_HAL_Driver/Src/stm32f1xx_hal_adc_ex.c ****     
 735:Drivers/STM32F1xx_HAL_Driver/Src/stm32f1xx_hal_adc_ex.c ****     /* Set ADC error code to none */
 736:Drivers/STM32F1xx_HAL_Driver/Src/stm32f1xx_hal_adc_ex.c ****     ADC_CLEAR_ERRORCODE(hadc);
 737:Drivers/STM32F1xx_HAL_Driver/Src/stm32f1xx_hal_adc_ex.c ****     
 738:Drivers/STM32F1xx_HAL_Driver/Src/stm32f1xx_hal_adc_ex.c ****     
 739:Drivers/STM32F1xx_HAL_Driver/Src/stm32f1xx_hal_adc_ex.c ****     /* Set the DMA transfer complete callback */
 740:Drivers/STM32F1xx_HAL_Driver/Src/stm32f1xx_hal_adc_ex.c ****     hadc->DMA_Handle->XferCpltCallback = ADC_DMAConvCplt;
 741:Drivers/STM32F1xx_HAL_Driver/Src/stm32f1xx_hal_adc_ex.c ****        
 742:Drivers/STM32F1xx_HAL_Driver/Src/stm32f1xx_hal_adc_ex.c ****     /* Set the DMA half transfer complete callback */
 743:Drivers/STM32F1xx_HAL_Driver/Src/stm32f1xx_hal_adc_ex.c ****     hadc->DMA_Handle->XferHalfCpltCallback = ADC_DMAHalfConvCplt;
 744:Drivers/STM32F1xx_HAL_Driver/Src/stm32f1xx_hal_adc_ex.c ****     
 745:Drivers/STM32F1xx_HAL_Driver/Src/stm32f1xx_hal_adc_ex.c ****     /* Set the DMA error callback */
 746:Drivers/STM32F1xx_HAL_Driver/Src/stm32f1xx_hal_adc_ex.c ****     hadc->DMA_Handle->XferErrorCallback = ADC_DMAError;
 747:Drivers/STM32F1xx_HAL_Driver/Src/stm32f1xx_hal_adc_ex.c **** 
 748:Drivers/STM32F1xx_HAL_Driver/Src/stm32f1xx_hal_adc_ex.c ****     
 749:Drivers/STM32F1xx_HAL_Driver/Src/stm32f1xx_hal_adc_ex.c ****     /* Manage ADC and DMA start: ADC overrun interruption, DMA start, ADC     */
 750:Drivers/STM32F1xx_HAL_Driver/Src/stm32f1xx_hal_adc_ex.c ****     /* start (in case of SW start):                                           */
 751:Drivers/STM32F1xx_HAL_Driver/Src/stm32f1xx_hal_adc_ex.c ****     
 752:Drivers/STM32F1xx_HAL_Driver/Src/stm32f1xx_hal_adc_ex.c ****     /* Clear regular group conversion flag and overrun flag */
 753:Drivers/STM32F1xx_HAL_Driver/Src/stm32f1xx_hal_adc_ex.c ****     /* (To ensure of no unknown state from potential previous ADC operations) */
 754:Drivers/STM32F1xx_HAL_Driver/Src/stm32f1xx_hal_adc_ex.c ****     __HAL_ADC_CLEAR_FLAG(hadc, ADC_FLAG_EOC);
 755:Drivers/STM32F1xx_HAL_Driver/Src/stm32f1xx_hal_adc_ex.c ****     
 756:Drivers/STM32F1xx_HAL_Driver/Src/stm32f1xx_hal_adc_ex.c ****     /* Enable ADC DMA mode of ADC master */
 757:Drivers/STM32F1xx_HAL_Driver/Src/stm32f1xx_hal_adc_ex.c ****     SET_BIT(hadc->Instance->CR2, ADC_CR2_DMA);
 758:Drivers/STM32F1xx_HAL_Driver/Src/stm32f1xx_hal_adc_ex.c ****     
 759:Drivers/STM32F1xx_HAL_Driver/Src/stm32f1xx_hal_adc_ex.c ****     /* Start the DMA channel */
 760:Drivers/STM32F1xx_HAL_Driver/Src/stm32f1xx_hal_adc_ex.c ****     HAL_DMA_Start_IT(hadc->DMA_Handle, (uint32_t)&hadc->Instance->DR, (uint32_t)pData, Length);
 761:Drivers/STM32F1xx_HAL_Driver/Src/stm32f1xx_hal_adc_ex.c ****     
 762:Drivers/STM32F1xx_HAL_Driver/Src/stm32f1xx_hal_adc_ex.c ****     /* Start conversion of regular group if software start has been selected. */
 763:Drivers/STM32F1xx_HAL_Driver/Src/stm32f1xx_hal_adc_ex.c ****     /* If external trigger has been selected, conversion will start at next   */
 764:Drivers/STM32F1xx_HAL_Driver/Src/stm32f1xx_hal_adc_ex.c ****     /* trigger event.                                                         */
 765:Drivers/STM32F1xx_HAL_Driver/Src/stm32f1xx_hal_adc_ex.c ****     /* Note: Alternate trigger for single conversion could be to force an     */
 766:Drivers/STM32F1xx_HAL_Driver/Src/stm32f1xx_hal_adc_ex.c ****     /*       additional set of bit ADON "hadc->Instance->CR2 |= ADC_CR2_ADON;"*/
 767:Drivers/STM32F1xx_HAL_Driver/Src/stm32f1xx_hal_adc_ex.c ****     if (ADC_IS_SOFTWARE_START_REGULAR(hadc))
 768:Drivers/STM32F1xx_HAL_Driver/Src/stm32f1xx_hal_adc_ex.c ****     {
 769:Drivers/STM32F1xx_HAL_Driver/Src/stm32f1xx_hal_adc_ex.c ****       /* Start ADC conversion on regular group with SW start */
 770:Drivers/STM32F1xx_HAL_Driver/Src/stm32f1xx_hal_adc_ex.c ****       SET_BIT(hadc->Instance->CR2, (ADC_CR2_SWSTART | ADC_CR2_EXTTRIG));
 771:Drivers/STM32F1xx_HAL_Driver/Src/stm32f1xx_hal_adc_ex.c ****     }
 772:Drivers/STM32F1xx_HAL_Driver/Src/stm32f1xx_hal_adc_ex.c ****     else
 773:Drivers/STM32F1xx_HAL_Driver/Src/stm32f1xx_hal_adc_ex.c ****     {
 774:Drivers/STM32F1xx_HAL_Driver/Src/stm32f1xx_hal_adc_ex.c ****       /* Start ADC conversion on regular group with external trigger */
 775:Drivers/STM32F1xx_HAL_Driver/Src/stm32f1xx_hal_adc_ex.c ****       SET_BIT(hadc->Instance->CR2, ADC_CR2_EXTTRIG);
 776:Drivers/STM32F1xx_HAL_Driver/Src/stm32f1xx_hal_adc_ex.c ****     }
 777:Drivers/STM32F1xx_HAL_Driver/Src/stm32f1xx_hal_adc_ex.c ****   }
 778:Drivers/STM32F1xx_HAL_Driver/Src/stm32f1xx_hal_adc_ex.c ****   else
ARM GAS  /tmp/ccKo6yLr.s 			page 37


 779:Drivers/STM32F1xx_HAL_Driver/Src/stm32f1xx_hal_adc_ex.c ****   {
 780:Drivers/STM32F1xx_HAL_Driver/Src/stm32f1xx_hal_adc_ex.c ****     /* Process unlocked */
 781:Drivers/STM32F1xx_HAL_Driver/Src/stm32f1xx_hal_adc_ex.c ****     __HAL_UNLOCK(hadc);
 782:Drivers/STM32F1xx_HAL_Driver/Src/stm32f1xx_hal_adc_ex.c ****   }
 783:Drivers/STM32F1xx_HAL_Driver/Src/stm32f1xx_hal_adc_ex.c ****   
 784:Drivers/STM32F1xx_HAL_Driver/Src/stm32f1xx_hal_adc_ex.c ****   /* Return function status */
 785:Drivers/STM32F1xx_HAL_Driver/Src/stm32f1xx_hal_adc_ex.c ****   return tmp_hal_status;
 786:Drivers/STM32F1xx_HAL_Driver/Src/stm32f1xx_hal_adc_ex.c **** }
 1166              		.loc 1 786 1 view .LVU342
 1167 0042 3046     		mov	r0, r6
 1168 0044 0DB0     		add	sp, sp, #52
 1169              	.LCFI18:
 1170              		.cfi_remember_state
 1171              		.cfi_def_cfa_offset 20
 1172              		@ sp needed
 1173 0046 F0BD     		pop	{r4, r5, r6, r7, pc}
 1174              	.LVL60:
 1175              	.L111:
 1176              	.LCFI19:
 1177              		.cfi_restore_state
 707:Drivers/STM32F1xx_HAL_Driver/Src/stm32f1xx_hal_adc_ex.c ****   if (tmp_hal_status == HAL_OK)
 1178              		.loc 1 707 3 is_stmt 1 view .LVU343
 707:Drivers/STM32F1xx_HAL_Driver/Src/stm32f1xx_hal_adc_ex.c ****   if (tmp_hal_status == HAL_OK)
 1179              		.loc 1 707 20 is_stmt 0 view .LVU344
 1180 0048 2046     		mov	r0, r4
 1181 004a FFF7FEFF 		bl	ADC_Enable
 1182              	.LVL61:
 708:Drivers/STM32F1xx_HAL_Driver/Src/stm32f1xx_hal_adc_ex.c ****   {
 1183              		.loc 1 708 3 is_stmt 1 view .LVU345
 708:Drivers/STM32F1xx_HAL_Driver/Src/stm32f1xx_hal_adc_ex.c ****   {
 1184              		.loc 1 708 6 is_stmt 0 view .LVU346
 1185 004e 0646     		mov	r6, r0
 1186 0050 0028     		cmp	r0, #0
 1187 0052 3BD0     		beq	.L118
 1188              	.LVL62:
 1189              	.L112:
 714:Drivers/STM32F1xx_HAL_Driver/Src/stm32f1xx_hal_adc_ex.c ****   {
 1190              		.loc 1 714 3 is_stmt 1 view .LVU347
 714:Drivers/STM32F1xx_HAL_Driver/Src/stm32f1xx_hal_adc_ex.c ****   {
 1191              		.loc 1 714 6 is_stmt 0 view .LVU348
 1192 0054 002E     		cmp	r6, #0
 1193 0056 43D1     		bne	.L113
 719:Drivers/STM32F1xx_HAL_Driver/Src/stm32f1xx_hal_adc_ex.c ****                       HAL_ADC_STATE_READY | HAL_ADC_STATE_REG_EOC | HAL_ADC_STATE_MULTIMODE_SLAVE,
 1194              		.loc 1 719 5 is_stmt 1 view .LVU349
 1195 0058 A26A     		ldr	r2, [r4, #40]
 1196 005a 254B     		ldr	r3, .L120+4
 1197 005c 1340     		ands	r3, r3, r2
 1198 005e 43F48073 		orr	r3, r3, #256
 1199 0062 A362     		str	r3, [r4, #40]
 725:Drivers/STM32F1xx_HAL_Driver/Src/stm32f1xx_hal_adc_ex.c ****     {
 1200              		.loc 1 725 5 view .LVU350
 725:Drivers/STM32F1xx_HAL_Driver/Src/stm32f1xx_hal_adc_ex.c ****     {
 1201              		.loc 1 725 9 is_stmt 0 view .LVU351
 1202 0064 2368     		ldr	r3, [r4]
 1203 0066 5B68     		ldr	r3, [r3, #4]
 725:Drivers/STM32F1xx_HAL_Driver/Src/stm32f1xx_hal_adc_ex.c ****     {
 1204              		.loc 1 725 8 view .LVU352
ARM GAS  /tmp/ccKo6yLr.s 			page 38


 1205 0068 13F4806F 		tst	r3, #1024
 1206 006c 05D0     		beq	.L114
 727:Drivers/STM32F1xx_HAL_Driver/Src/stm32f1xx_hal_adc_ex.c ****     }
 1207              		.loc 1 727 7 is_stmt 1 view .LVU353
 1208 006e A36A     		ldr	r3, [r4, #40]
 1209 0070 23F44053 		bic	r3, r3, #12288
 1210 0074 43F48053 		orr	r3, r3, #4096
 1211 0078 A362     		str	r3, [r4, #40]
 1212              	.L114:
 733:Drivers/STM32F1xx_HAL_Driver/Src/stm32f1xx_hal_adc_ex.c ****     
 1213              		.loc 1 733 5 view .LVU354
 733:Drivers/STM32F1xx_HAL_Driver/Src/stm32f1xx_hal_adc_ex.c ****     
 1214              		.loc 1 733 5 view .LVU355
 1215 007a 0023     		movs	r3, #0
 1216 007c 84F82430 		strb	r3, [r4, #36]
 733:Drivers/STM32F1xx_HAL_Driver/Src/stm32f1xx_hal_adc_ex.c ****     
 1217              		.loc 1 733 5 view .LVU356
 736:Drivers/STM32F1xx_HAL_Driver/Src/stm32f1xx_hal_adc_ex.c ****     
 1218              		.loc 1 736 5 view .LVU357
 1219 0080 E362     		str	r3, [r4, #44]
 740:Drivers/STM32F1xx_HAL_Driver/Src/stm32f1xx_hal_adc_ex.c ****        
 1220              		.loc 1 740 5 view .LVU358
 740:Drivers/STM32F1xx_HAL_Driver/Src/stm32f1xx_hal_adc_ex.c ****        
 1221              		.loc 1 740 9 is_stmt 0 view .LVU359
 1222 0082 236A     		ldr	r3, [r4, #32]
 740:Drivers/STM32F1xx_HAL_Driver/Src/stm32f1xx_hal_adc_ex.c ****        
 1223              		.loc 1 740 40 view .LVU360
 1224 0084 1B4A     		ldr	r2, .L120+8
 1225 0086 9A62     		str	r2, [r3, #40]
 743:Drivers/STM32F1xx_HAL_Driver/Src/stm32f1xx_hal_adc_ex.c ****     
 1226              		.loc 1 743 5 is_stmt 1 view .LVU361
 743:Drivers/STM32F1xx_HAL_Driver/Src/stm32f1xx_hal_adc_ex.c ****     
 1227              		.loc 1 743 9 is_stmt 0 view .LVU362
 1228 0088 236A     		ldr	r3, [r4, #32]
 743:Drivers/STM32F1xx_HAL_Driver/Src/stm32f1xx_hal_adc_ex.c ****     
 1229              		.loc 1 743 44 view .LVU363
 1230 008a 1B4A     		ldr	r2, .L120+12
 1231 008c DA62     		str	r2, [r3, #44]
 746:Drivers/STM32F1xx_HAL_Driver/Src/stm32f1xx_hal_adc_ex.c **** 
 1232              		.loc 1 746 5 is_stmt 1 view .LVU364
 746:Drivers/STM32F1xx_HAL_Driver/Src/stm32f1xx_hal_adc_ex.c **** 
 1233              		.loc 1 746 9 is_stmt 0 view .LVU365
 1234 008e 236A     		ldr	r3, [r4, #32]
 746:Drivers/STM32F1xx_HAL_Driver/Src/stm32f1xx_hal_adc_ex.c **** 
 1235              		.loc 1 746 41 view .LVU366
 1236 0090 1A4A     		ldr	r2, .L120+16
 1237 0092 1A63     		str	r2, [r3, #48]
 754:Drivers/STM32F1xx_HAL_Driver/Src/stm32f1xx_hal_adc_ex.c ****     
 1238              		.loc 1 754 5 is_stmt 1 view .LVU367
 1239 0094 2368     		ldr	r3, [r4]
 1240 0096 6FF00202 		mvn	r2, #2
 1241 009a 1A60     		str	r2, [r3]
 757:Drivers/STM32F1xx_HAL_Driver/Src/stm32f1xx_hal_adc_ex.c ****     
 1242              		.loc 1 757 5 view .LVU368
 1243 009c 2268     		ldr	r2, [r4]
 1244 009e 9368     		ldr	r3, [r2, #8]
 1245 00a0 43F48073 		orr	r3, r3, #256
ARM GAS  /tmp/ccKo6yLr.s 			page 39


 1246 00a4 9360     		str	r3, [r2, #8]
 760:Drivers/STM32F1xx_HAL_Driver/Src/stm32f1xx_hal_adc_ex.c ****     
 1247              		.loc 1 760 5 view .LVU369
 760:Drivers/STM32F1xx_HAL_Driver/Src/stm32f1xx_hal_adc_ex.c ****     
 1248              		.loc 1 760 55 is_stmt 0 view .LVU370
 1249 00a6 2168     		ldr	r1, [r4]
 760:Drivers/STM32F1xx_HAL_Driver/Src/stm32f1xx_hal_adc_ex.c ****     
 1250              		.loc 1 760 5 view .LVU371
 1251 00a8 3B46     		mov	r3, r7
 1252 00aa 2A46     		mov	r2, r5
 1253 00ac 4C31     		adds	r1, r1, #76
 1254 00ae 206A     		ldr	r0, [r4, #32]
 1255 00b0 FFF7FEFF 		bl	HAL_DMA_Start_IT
 1256              	.LVL63:
 767:Drivers/STM32F1xx_HAL_Driver/Src/stm32f1xx_hal_adc_ex.c ****     {
 1257              		.loc 1 767 5 is_stmt 1 view .LVU372
 767:Drivers/STM32F1xx_HAL_Driver/Src/stm32f1xx_hal_adc_ex.c ****     {
 1258              		.loc 1 767 9 is_stmt 0 view .LVU373
 1259 00b4 2368     		ldr	r3, [r4]
 1260 00b6 9A68     		ldr	r2, [r3, #8]
 1261 00b8 02F46022 		and	r2, r2, #917504
 767:Drivers/STM32F1xx_HAL_Driver/Src/stm32f1xx_hal_adc_ex.c ****     {
 1262              		.loc 1 767 8 view .LVU374
 1263 00bc B2F5602F 		cmp	r2, #917504
 1264 00c0 09D0     		beq	.L119
 775:Drivers/STM32F1xx_HAL_Driver/Src/stm32f1xx_hal_adc_ex.c ****     }
 1265              		.loc 1 775 7 is_stmt 1 view .LVU375
 1266 00c2 9A68     		ldr	r2, [r3, #8]
 1267 00c4 42F48012 		orr	r2, r2, #1048576
 1268 00c8 9A60     		str	r2, [r3, #8]
 1269 00ca BAE7     		b	.L110
 1270              	.LVL64:
 1271              	.L118:
 710:Drivers/STM32F1xx_HAL_Driver/Src/stm32f1xx_hal_adc_ex.c ****   }
 1272              		.loc 1 710 5 view .LVU376
 710:Drivers/STM32F1xx_HAL_Driver/Src/stm32f1xx_hal_adc_ex.c ****   }
 1273              		.loc 1 710 22 is_stmt 0 view .LVU377
 1274 00cc 6846     		mov	r0, sp
 1275              	.LVL65:
 710:Drivers/STM32F1xx_HAL_Driver/Src/stm32f1xx_hal_adc_ex.c ****   }
 1276              		.loc 1 710 22 view .LVU378
 1277 00ce FFF7FEFF 		bl	ADC_Enable
 1278              	.LVL66:
 1279 00d2 0646     		mov	r6, r0
 1280              	.LVL67:
 710:Drivers/STM32F1xx_HAL_Driver/Src/stm32f1xx_hal_adc_ex.c ****   }
 1281              		.loc 1 710 22 view .LVU379
 1282 00d4 BEE7     		b	.L112
 1283              	.L119:
 770:Drivers/STM32F1xx_HAL_Driver/Src/stm32f1xx_hal_adc_ex.c ****     }
 1284              		.loc 1 770 7 is_stmt 1 view .LVU380
 1285 00d6 9A68     		ldr	r2, [r3, #8]
 1286 00d8 42F4A002 		orr	r2, r2, #5242880
 1287 00dc 9A60     		str	r2, [r3, #8]
 1288 00de B0E7     		b	.L110
 1289              	.L113:
 781:Drivers/STM32F1xx_HAL_Driver/Src/stm32f1xx_hal_adc_ex.c ****   }
ARM GAS  /tmp/ccKo6yLr.s 			page 40


 1290              		.loc 1 781 5 view .LVU381
 781:Drivers/STM32F1xx_HAL_Driver/Src/stm32f1xx_hal_adc_ex.c ****   }
 1291              		.loc 1 781 5 view .LVU382
 1292 00e0 0023     		movs	r3, #0
 1293 00e2 84F82430 		strb	r3, [r4, #36]
 1294 00e6 ACE7     		b	.L110
 1295              	.LVL68:
 1296              	.L116:
 685:Drivers/STM32F1xx_HAL_Driver/Src/stm32f1xx_hal_adc_ex.c **** 
 1297              		.loc 1 685 3 is_stmt 0 view .LVU383
 1298 00e8 0226     		movs	r6, #2
 1299 00ea AAE7     		b	.L110
 1300              	.L121:
 1301              		.align	2
 1302              	.L120:
 1303 00ec 00280140 		.word	1073817600
 1304 00f0 FEFCEFFF 		.word	-1049346
 1305 00f4 00000000 		.word	ADC_DMAConvCplt
 1306 00f8 00000000 		.word	ADC_DMAHalfConvCplt
 1307 00fc 00000000 		.word	ADC_DMAError
 1308              		.cfi_endproc
 1309              	.LFE71:
 1311              		.section	.text.HAL_ADCEx_MultiModeStop_DMA,"ax",%progbits
 1312              		.align	1
 1313              		.global	HAL_ADCEx_MultiModeStop_DMA
 1314              		.syntax unified
 1315              		.thumb
 1316              		.thumb_func
 1317              		.fpu softvfp
 1319              	HAL_ADCEx_MultiModeStop_DMA:
 1320              	.LVL69:
 1321              	.LFB72:
 787:Drivers/STM32F1xx_HAL_Driver/Src/stm32f1xx_hal_adc_ex.c **** 
 788:Drivers/STM32F1xx_HAL_Driver/Src/stm32f1xx_hal_adc_ex.c **** /**
 789:Drivers/STM32F1xx_HAL_Driver/Src/stm32f1xx_hal_adc_ex.c ****   * @brief  Stop ADC conversion of regular group (and injected channels in 
 790:Drivers/STM32F1xx_HAL_Driver/Src/stm32f1xx_hal_adc_ex.c ****   *         case of auto_injection mode), disable ADC DMA transfer, disable 
 791:Drivers/STM32F1xx_HAL_Driver/Src/stm32f1xx_hal_adc_ex.c ****   *         ADC peripheral.
 792:Drivers/STM32F1xx_HAL_Driver/Src/stm32f1xx_hal_adc_ex.c ****   * @note   Multimode is kept enabled after this function. To disable multimode 
 793:Drivers/STM32F1xx_HAL_Driver/Src/stm32f1xx_hal_adc_ex.c ****   *         (set with HAL_ADCEx_MultiModeConfigChannel(), ADC must be 
 794:Drivers/STM32F1xx_HAL_Driver/Src/stm32f1xx_hal_adc_ex.c ****   *         reinitialized using HAL_ADC_Init() or HAL_ADC_ReInit().
 795:Drivers/STM32F1xx_HAL_Driver/Src/stm32f1xx_hal_adc_ex.c ****   * @note   In case of DMA configured in circular mode, function 
 796:Drivers/STM32F1xx_HAL_Driver/Src/stm32f1xx_hal_adc_ex.c ****   *         HAL_ADC_Stop_DMA must be called after this function with handle of
 797:Drivers/STM32F1xx_HAL_Driver/Src/stm32f1xx_hal_adc_ex.c ****   *         ADC slave, to properly disable the DMA channel.
 798:Drivers/STM32F1xx_HAL_Driver/Src/stm32f1xx_hal_adc_ex.c ****   * @param  hadc: ADC handle of ADC master (handle of ADC slave must not be used)
 799:Drivers/STM32F1xx_HAL_Driver/Src/stm32f1xx_hal_adc_ex.c ****   * @retval None
 800:Drivers/STM32F1xx_HAL_Driver/Src/stm32f1xx_hal_adc_ex.c ****   */
 801:Drivers/STM32F1xx_HAL_Driver/Src/stm32f1xx_hal_adc_ex.c **** HAL_StatusTypeDef HAL_ADCEx_MultiModeStop_DMA(ADC_HandleTypeDef* hadc)
 802:Drivers/STM32F1xx_HAL_Driver/Src/stm32f1xx_hal_adc_ex.c **** {
 1322              		.loc 1 802 1 is_stmt 1 view -0
 1323              		.cfi_startproc
 1324              		@ args = 0, pretend = 0, frame = 48
 1325              		@ frame_needed = 0, uses_anonymous_args = 0
 1326              		.loc 1 802 1 is_stmt 0 view .LVU385
 1327 0000 10B5     		push	{r4, lr}
 1328              	.LCFI20:
 1329              		.cfi_def_cfa_offset 8
 1330              		.cfi_offset 4, -8
ARM GAS  /tmp/ccKo6yLr.s 			page 41


 1331              		.cfi_offset 14, -4
 1332 0002 8CB0     		sub	sp, sp, #48
 1333              	.LCFI21:
 1334              		.cfi_def_cfa_offset 56
 1335 0004 0446     		mov	r4, r0
 803:Drivers/STM32F1xx_HAL_Driver/Src/stm32f1xx_hal_adc_ex.c ****   HAL_StatusTypeDef tmp_hal_status = HAL_OK;
 1336              		.loc 1 803 3 is_stmt 1 view .LVU386
 1337              	.LVL70:
 804:Drivers/STM32F1xx_HAL_Driver/Src/stm32f1xx_hal_adc_ex.c ****   ADC_HandleTypeDef tmphadcSlave={0};
 1338              		.loc 1 804 3 view .LVU387
 1339              		.loc 1 804 21 is_stmt 0 view .LVU388
 1340 0006 3022     		movs	r2, #48
 1341 0008 0021     		movs	r1, #0
 1342 000a 6846     		mov	r0, sp
 1343              	.LVL71:
 1344              		.loc 1 804 21 view .LVU389
 1345 000c FFF7FEFF 		bl	memset
 1346              	.LVL72:
 805:Drivers/STM32F1xx_HAL_Driver/Src/stm32f1xx_hal_adc_ex.c ****   
 806:Drivers/STM32F1xx_HAL_Driver/Src/stm32f1xx_hal_adc_ex.c ****   /* Check the parameters */
 807:Drivers/STM32F1xx_HAL_Driver/Src/stm32f1xx_hal_adc_ex.c ****   assert_param(IS_ADC_MULTIMODE_MASTER_INSTANCE(hadc->Instance));
 1347              		.loc 1 807 3 is_stmt 1 view .LVU390
 808:Drivers/STM32F1xx_HAL_Driver/Src/stm32f1xx_hal_adc_ex.c ****   
 809:Drivers/STM32F1xx_HAL_Driver/Src/stm32f1xx_hal_adc_ex.c ****   /* Process locked */
 810:Drivers/STM32F1xx_HAL_Driver/Src/stm32f1xx_hal_adc_ex.c ****   __HAL_LOCK(hadc);
 1348              		.loc 1 810 3 view .LVU391
 1349              		.loc 1 810 3 view .LVU392
 1350 0010 94F82430 		ldrb	r3, [r4, #36]	@ zero_extendqisi2
 1351 0014 012B     		cmp	r3, #1
 1352 0016 30D0     		beq	.L126
 1353              		.loc 1 810 3 discriminator 2 view .LVU393
 1354 0018 0123     		movs	r3, #1
 1355 001a 84F82430 		strb	r3, [r4, #36]
 1356              		.loc 1 810 3 discriminator 2 view .LVU394
 811:Drivers/STM32F1xx_HAL_Driver/Src/stm32f1xx_hal_adc_ex.c **** 
 812:Drivers/STM32F1xx_HAL_Driver/Src/stm32f1xx_hal_adc_ex.c ****   /* Stop potential conversion on going, on regular and injected groups */
 813:Drivers/STM32F1xx_HAL_Driver/Src/stm32f1xx_hal_adc_ex.c ****   /* Disable ADC master peripheral */
 814:Drivers/STM32F1xx_HAL_Driver/Src/stm32f1xx_hal_adc_ex.c ****   tmp_hal_status = ADC_ConversionStop_Disable(hadc);
 1357              		.loc 1 814 3 discriminator 2 view .LVU395
 1358              		.loc 1 814 20 is_stmt 0 discriminator 2 view .LVU396
 1359 001e 2046     		mov	r0, r4
 1360 0020 FFF7FEFF 		bl	ADC_ConversionStop_Disable
 1361              	.LVL73:
 815:Drivers/STM32F1xx_HAL_Driver/Src/stm32f1xx_hal_adc_ex.c ****   
 816:Drivers/STM32F1xx_HAL_Driver/Src/stm32f1xx_hal_adc_ex.c ****   /* Check if ADC is effectively disabled */
 817:Drivers/STM32F1xx_HAL_Driver/Src/stm32f1xx_hal_adc_ex.c ****   if(tmp_hal_status == HAL_OK)
 1362              		.loc 1 817 3 is_stmt 1 discriminator 2 view .LVU397
 1363              		.loc 1 817 5 is_stmt 0 discriminator 2 view .LVU398
 1364 0024 20B1     		cbz	r0, .L128
 1365              	.L124:
 818:Drivers/STM32F1xx_HAL_Driver/Src/stm32f1xx_hal_adc_ex.c ****   {
 819:Drivers/STM32F1xx_HAL_Driver/Src/stm32f1xx_hal_adc_ex.c ****     /* Set a temporary handle of the ADC slave associated to the ADC master   */
 820:Drivers/STM32F1xx_HAL_Driver/Src/stm32f1xx_hal_adc_ex.c ****     ADC_MULTI_SLAVE(hadc, &tmphadcSlave);
 821:Drivers/STM32F1xx_HAL_Driver/Src/stm32f1xx_hal_adc_ex.c **** 
 822:Drivers/STM32F1xx_HAL_Driver/Src/stm32f1xx_hal_adc_ex.c ****     /* Disable ADC slave peripheral */
 823:Drivers/STM32F1xx_HAL_Driver/Src/stm32f1xx_hal_adc_ex.c ****     tmp_hal_status = ADC_ConversionStop_Disable(&tmphadcSlave);
 824:Drivers/STM32F1xx_HAL_Driver/Src/stm32f1xx_hal_adc_ex.c **** 
ARM GAS  /tmp/ccKo6yLr.s 			page 42


 825:Drivers/STM32F1xx_HAL_Driver/Src/stm32f1xx_hal_adc_ex.c ****     /* Check if ADC is effectively disabled */
 826:Drivers/STM32F1xx_HAL_Driver/Src/stm32f1xx_hal_adc_ex.c ****     if(tmp_hal_status != HAL_OK)
 827:Drivers/STM32F1xx_HAL_Driver/Src/stm32f1xx_hal_adc_ex.c ****     {
 828:Drivers/STM32F1xx_HAL_Driver/Src/stm32f1xx_hal_adc_ex.c ****       /* Update ADC state machine to error */
 829:Drivers/STM32F1xx_HAL_Driver/Src/stm32f1xx_hal_adc_ex.c ****       SET_BIT(hadc->State, HAL_ADC_STATE_ERROR_INTERNAL);
 830:Drivers/STM32F1xx_HAL_Driver/Src/stm32f1xx_hal_adc_ex.c **** 
 831:Drivers/STM32F1xx_HAL_Driver/Src/stm32f1xx_hal_adc_ex.c ****       /* Process unlocked */
 832:Drivers/STM32F1xx_HAL_Driver/Src/stm32f1xx_hal_adc_ex.c ****       __HAL_UNLOCK(hadc);
 833:Drivers/STM32F1xx_HAL_Driver/Src/stm32f1xx_hal_adc_ex.c **** 
 834:Drivers/STM32F1xx_HAL_Driver/Src/stm32f1xx_hal_adc_ex.c ****       return HAL_ERROR;
 835:Drivers/STM32F1xx_HAL_Driver/Src/stm32f1xx_hal_adc_ex.c ****     }
 836:Drivers/STM32F1xx_HAL_Driver/Src/stm32f1xx_hal_adc_ex.c **** 
 837:Drivers/STM32F1xx_HAL_Driver/Src/stm32f1xx_hal_adc_ex.c ****     /* Disable ADC DMA mode */
 838:Drivers/STM32F1xx_HAL_Driver/Src/stm32f1xx_hal_adc_ex.c ****     CLEAR_BIT(hadc->Instance->CR2, ADC_CR2_DMA);
 839:Drivers/STM32F1xx_HAL_Driver/Src/stm32f1xx_hal_adc_ex.c ****     
 840:Drivers/STM32F1xx_HAL_Driver/Src/stm32f1xx_hal_adc_ex.c ****     /* Reset configuration of ADC DMA continuous request for dual mode */
 841:Drivers/STM32F1xx_HAL_Driver/Src/stm32f1xx_hal_adc_ex.c ****     CLEAR_BIT(hadc->Instance->CR1, ADC_CR1_DUALMOD);
 842:Drivers/STM32F1xx_HAL_Driver/Src/stm32f1xx_hal_adc_ex.c ****         
 843:Drivers/STM32F1xx_HAL_Driver/Src/stm32f1xx_hal_adc_ex.c ****     /* Disable the DMA channel (in case of DMA in circular mode or stop while */
 844:Drivers/STM32F1xx_HAL_Driver/Src/stm32f1xx_hal_adc_ex.c ****     /* while DMA transfer is on going)                                        */
 845:Drivers/STM32F1xx_HAL_Driver/Src/stm32f1xx_hal_adc_ex.c ****     tmp_hal_status = HAL_DMA_Abort(hadc->DMA_Handle);
 846:Drivers/STM32F1xx_HAL_Driver/Src/stm32f1xx_hal_adc_ex.c **** 
 847:Drivers/STM32F1xx_HAL_Driver/Src/stm32f1xx_hal_adc_ex.c ****     /* Change ADC state (ADC master) */
 848:Drivers/STM32F1xx_HAL_Driver/Src/stm32f1xx_hal_adc_ex.c ****     ADC_STATE_CLR_SET(hadc->State,
 849:Drivers/STM32F1xx_HAL_Driver/Src/stm32f1xx_hal_adc_ex.c ****                       HAL_ADC_STATE_REG_BUSY | HAL_ADC_STATE_INJ_BUSY,
 850:Drivers/STM32F1xx_HAL_Driver/Src/stm32f1xx_hal_adc_ex.c ****                       HAL_ADC_STATE_READY);
 851:Drivers/STM32F1xx_HAL_Driver/Src/stm32f1xx_hal_adc_ex.c ****   }
 852:Drivers/STM32F1xx_HAL_Driver/Src/stm32f1xx_hal_adc_ex.c ****   
 853:Drivers/STM32F1xx_HAL_Driver/Src/stm32f1xx_hal_adc_ex.c ****   /* Process unlocked */
 854:Drivers/STM32F1xx_HAL_Driver/Src/stm32f1xx_hal_adc_ex.c ****   __HAL_UNLOCK(hadc);
 1366              		.loc 1 854 3 is_stmt 1 view .LVU399
 1367              		.loc 1 854 3 view .LVU400
 1368 0026 0023     		movs	r3, #0
 1369 0028 84F82430 		strb	r3, [r4, #36]
 1370              		.loc 1 854 3 view .LVU401
 855:Drivers/STM32F1xx_HAL_Driver/Src/stm32f1xx_hal_adc_ex.c ****   
 856:Drivers/STM32F1xx_HAL_Driver/Src/stm32f1xx_hal_adc_ex.c ****   /* Return function status */
 857:Drivers/STM32F1xx_HAL_Driver/Src/stm32f1xx_hal_adc_ex.c ****   return tmp_hal_status;
 1371              		.loc 1 857 3 view .LVU402
 1372              	.LVL74:
 1373              	.L123:
 858:Drivers/STM32F1xx_HAL_Driver/Src/stm32f1xx_hal_adc_ex.c **** }
 1374              		.loc 1 858 1 is_stmt 0 view .LVU403
 1375 002c 0CB0     		add	sp, sp, #48
 1376              	.LCFI22:
 1377              		.cfi_remember_state
 1378              		.cfi_def_cfa_offset 8
 1379              		@ sp needed
 1380 002e 10BD     		pop	{r4, pc}
 1381              	.LVL75:
 1382              	.L128:
 1383              	.LCFI23:
 1384              		.cfi_restore_state
 820:Drivers/STM32F1xx_HAL_Driver/Src/stm32f1xx_hal_adc_ex.c **** 
 1385              		.loc 1 820 5 is_stmt 1 view .LVU404
 1386 0030 134B     		ldr	r3, .L129
 1387 0032 0093     		str	r3, [sp]
ARM GAS  /tmp/ccKo6yLr.s 			page 43


 823:Drivers/STM32F1xx_HAL_Driver/Src/stm32f1xx_hal_adc_ex.c **** 
 1388              		.loc 1 823 5 view .LVU405
 823:Drivers/STM32F1xx_HAL_Driver/Src/stm32f1xx_hal_adc_ex.c **** 
 1389              		.loc 1 823 22 is_stmt 0 view .LVU406
 1390 0034 6846     		mov	r0, sp
 1391              	.LVL76:
 823:Drivers/STM32F1xx_HAL_Driver/Src/stm32f1xx_hal_adc_ex.c **** 
 1392              		.loc 1 823 22 view .LVU407
 1393 0036 FFF7FEFF 		bl	ADC_ConversionStop_Disable
 1394              	.LVL77:
 826:Drivers/STM32F1xx_HAL_Driver/Src/stm32f1xx_hal_adc_ex.c ****     {
 1395              		.loc 1 826 5 is_stmt 1 view .LVU408
 826:Drivers/STM32F1xx_HAL_Driver/Src/stm32f1xx_hal_adc_ex.c ****     {
 1396              		.loc 1 826 7 is_stmt 0 view .LVU409
 1397 003a 40B1     		cbz	r0, .L125
 829:Drivers/STM32F1xx_HAL_Driver/Src/stm32f1xx_hal_adc_ex.c **** 
 1398              		.loc 1 829 7 is_stmt 1 view .LVU410
 1399 003c A36A     		ldr	r3, [r4, #40]
 1400 003e 43F01003 		orr	r3, r3, #16
 1401 0042 A362     		str	r3, [r4, #40]
 832:Drivers/STM32F1xx_HAL_Driver/Src/stm32f1xx_hal_adc_ex.c **** 
 1402              		.loc 1 832 7 view .LVU411
 832:Drivers/STM32F1xx_HAL_Driver/Src/stm32f1xx_hal_adc_ex.c **** 
 1403              		.loc 1 832 7 view .LVU412
 1404 0044 0023     		movs	r3, #0
 1405 0046 84F82430 		strb	r3, [r4, #36]
 832:Drivers/STM32F1xx_HAL_Driver/Src/stm32f1xx_hal_adc_ex.c **** 
 1406              		.loc 1 832 7 view .LVU413
 834:Drivers/STM32F1xx_HAL_Driver/Src/stm32f1xx_hal_adc_ex.c ****     }
 1407              		.loc 1 834 7 view .LVU414
 834:Drivers/STM32F1xx_HAL_Driver/Src/stm32f1xx_hal_adc_ex.c ****     }
 1408              		.loc 1 834 14 is_stmt 0 view .LVU415
 1409 004a 0120     		movs	r0, #1
 1410              	.LVL78:
 834:Drivers/STM32F1xx_HAL_Driver/Src/stm32f1xx_hal_adc_ex.c ****     }
 1411              		.loc 1 834 14 view .LVU416
 1412 004c EEE7     		b	.L123
 1413              	.LVL79:
 1414              	.L125:
 838:Drivers/STM32F1xx_HAL_Driver/Src/stm32f1xx_hal_adc_ex.c ****     
 1415              		.loc 1 838 5 is_stmt 1 view .LVU417
 1416 004e 2268     		ldr	r2, [r4]
 1417 0050 9368     		ldr	r3, [r2, #8]
 1418 0052 23F48073 		bic	r3, r3, #256
 1419 0056 9360     		str	r3, [r2, #8]
 841:Drivers/STM32F1xx_HAL_Driver/Src/stm32f1xx_hal_adc_ex.c ****         
 1420              		.loc 1 841 5 view .LVU418
 1421 0058 2268     		ldr	r2, [r4]
 1422 005a 5368     		ldr	r3, [r2, #4]
 1423 005c 23F47023 		bic	r3, r3, #983040
 1424 0060 5360     		str	r3, [r2, #4]
 845:Drivers/STM32F1xx_HAL_Driver/Src/stm32f1xx_hal_adc_ex.c **** 
 1425              		.loc 1 845 5 view .LVU419
 845:Drivers/STM32F1xx_HAL_Driver/Src/stm32f1xx_hal_adc_ex.c **** 
 1426              		.loc 1 845 22 is_stmt 0 view .LVU420
 1427 0062 206A     		ldr	r0, [r4, #32]
 1428              	.LVL80:
ARM GAS  /tmp/ccKo6yLr.s 			page 44


 845:Drivers/STM32F1xx_HAL_Driver/Src/stm32f1xx_hal_adc_ex.c **** 
 1429              		.loc 1 845 22 view .LVU421
 1430 0064 FFF7FEFF 		bl	HAL_DMA_Abort
 1431              	.LVL81:
 848:Drivers/STM32F1xx_HAL_Driver/Src/stm32f1xx_hal_adc_ex.c ****                       HAL_ADC_STATE_REG_BUSY | HAL_ADC_STATE_INJ_BUSY,
 1432              		.loc 1 848 5 is_stmt 1 view .LVU422
 1433 0068 A36A     		ldr	r3, [r4, #40]
 1434 006a 23F48853 		bic	r3, r3, #4352
 1435 006e 23F00103 		bic	r3, r3, #1
 1436 0072 43F00103 		orr	r3, r3, #1
 1437 0076 A362     		str	r3, [r4, #40]
 1438 0078 D5E7     		b	.L124
 1439              	.LVL82:
 1440              	.L126:
 810:Drivers/STM32F1xx_HAL_Driver/Src/stm32f1xx_hal_adc_ex.c **** 
 1441              		.loc 1 810 3 is_stmt 0 view .LVU423
 1442 007a 0220     		movs	r0, #2
 1443 007c D6E7     		b	.L123
 1444              	.L130:
 1445 007e 00BF     		.align	2
 1446              	.L129:
 1447 0080 00280140 		.word	1073817600
 1448              		.cfi_endproc
 1449              	.LFE72:
 1451              		.section	.text.HAL_ADCEx_InjectedGetValue,"ax",%progbits
 1452              		.align	1
 1453              		.global	HAL_ADCEx_InjectedGetValue
 1454              		.syntax unified
 1455              		.thumb
 1456              		.thumb_func
 1457              		.fpu softvfp
 1459              	HAL_ADCEx_InjectedGetValue:
 1460              	.LVL83:
 1461              	.LFB73:
 859:Drivers/STM32F1xx_HAL_Driver/Src/stm32f1xx_hal_adc_ex.c **** #endif /* defined STM32F103x6 || defined STM32F103xB || defined STM32F105xC || defined STM32F107xC 
 860:Drivers/STM32F1xx_HAL_Driver/Src/stm32f1xx_hal_adc_ex.c **** 
 861:Drivers/STM32F1xx_HAL_Driver/Src/stm32f1xx_hal_adc_ex.c **** /**
 862:Drivers/STM32F1xx_HAL_Driver/Src/stm32f1xx_hal_adc_ex.c ****   * @brief  Get ADC injected group conversion result.
 863:Drivers/STM32F1xx_HAL_Driver/Src/stm32f1xx_hal_adc_ex.c ****   * @note   Reading register JDRx automatically clears ADC flag JEOC
 864:Drivers/STM32F1xx_HAL_Driver/Src/stm32f1xx_hal_adc_ex.c ****   *         (ADC group injected end of unitary conversion).
 865:Drivers/STM32F1xx_HAL_Driver/Src/stm32f1xx_hal_adc_ex.c ****   * @note   This function does not clear ADC flag JEOS 
 866:Drivers/STM32F1xx_HAL_Driver/Src/stm32f1xx_hal_adc_ex.c ****   *         (ADC group injected end of sequence conversion)
 867:Drivers/STM32F1xx_HAL_Driver/Src/stm32f1xx_hal_adc_ex.c ****   *         Occurrence of flag JEOS rising:
 868:Drivers/STM32F1xx_HAL_Driver/Src/stm32f1xx_hal_adc_ex.c ****   *          - If sequencer is composed of 1 rank, flag JEOS is equivalent
 869:Drivers/STM32F1xx_HAL_Driver/Src/stm32f1xx_hal_adc_ex.c ****   *            to flag JEOC.
 870:Drivers/STM32F1xx_HAL_Driver/Src/stm32f1xx_hal_adc_ex.c ****   *          - If sequencer is composed of several ranks, during the scan
 871:Drivers/STM32F1xx_HAL_Driver/Src/stm32f1xx_hal_adc_ex.c ****   *            sequence flag JEOC only is raised, at the end of the scan sequence
 872:Drivers/STM32F1xx_HAL_Driver/Src/stm32f1xx_hal_adc_ex.c ****   *            both flags JEOC and EOS are raised.
 873:Drivers/STM32F1xx_HAL_Driver/Src/stm32f1xx_hal_adc_ex.c ****   *         Flag JEOS must not be cleared by this function because
 874:Drivers/STM32F1xx_HAL_Driver/Src/stm32f1xx_hal_adc_ex.c ****   *         it would not be compliant with low power features
 875:Drivers/STM32F1xx_HAL_Driver/Src/stm32f1xx_hal_adc_ex.c ****   *         (feature low power auto-wait, not available on all STM32 families).
 876:Drivers/STM32F1xx_HAL_Driver/Src/stm32f1xx_hal_adc_ex.c ****   *         To clear this flag, either use function: 
 877:Drivers/STM32F1xx_HAL_Driver/Src/stm32f1xx_hal_adc_ex.c ****   *         in programming model IT: @ref HAL_ADC_IRQHandler(), in programming
 878:Drivers/STM32F1xx_HAL_Driver/Src/stm32f1xx_hal_adc_ex.c ****   *         model polling: @ref HAL_ADCEx_InjectedPollForConversion() 
 879:Drivers/STM32F1xx_HAL_Driver/Src/stm32f1xx_hal_adc_ex.c ****   *         or @ref __HAL_ADC_CLEAR_FLAG(&hadc, ADC_FLAG_JEOS).
 880:Drivers/STM32F1xx_HAL_Driver/Src/stm32f1xx_hal_adc_ex.c ****   * @param  hadc: ADC handle
 881:Drivers/STM32F1xx_HAL_Driver/Src/stm32f1xx_hal_adc_ex.c ****   * @param  InjectedRank: the converted ADC injected rank.
ARM GAS  /tmp/ccKo6yLr.s 			page 45


 882:Drivers/STM32F1xx_HAL_Driver/Src/stm32f1xx_hal_adc_ex.c ****   *          This parameter can be one of the following values:
 883:Drivers/STM32F1xx_HAL_Driver/Src/stm32f1xx_hal_adc_ex.c ****   *            @arg ADC_INJECTED_RANK_1: Injected Channel1 selected
 884:Drivers/STM32F1xx_HAL_Driver/Src/stm32f1xx_hal_adc_ex.c ****   *            @arg ADC_INJECTED_RANK_2: Injected Channel2 selected
 885:Drivers/STM32F1xx_HAL_Driver/Src/stm32f1xx_hal_adc_ex.c ****   *            @arg ADC_INJECTED_RANK_3: Injected Channel3 selected
 886:Drivers/STM32F1xx_HAL_Driver/Src/stm32f1xx_hal_adc_ex.c ****   *            @arg ADC_INJECTED_RANK_4: Injected Channel4 selected
 887:Drivers/STM32F1xx_HAL_Driver/Src/stm32f1xx_hal_adc_ex.c ****   * @retval ADC group injected conversion data
 888:Drivers/STM32F1xx_HAL_Driver/Src/stm32f1xx_hal_adc_ex.c ****   */
 889:Drivers/STM32F1xx_HAL_Driver/Src/stm32f1xx_hal_adc_ex.c **** uint32_t HAL_ADCEx_InjectedGetValue(ADC_HandleTypeDef* hadc, uint32_t InjectedRank)
 890:Drivers/STM32F1xx_HAL_Driver/Src/stm32f1xx_hal_adc_ex.c **** {
 1462              		.loc 1 890 1 is_stmt 1 view -0
 1463              		.cfi_startproc
 1464              		@ args = 0, pretend = 0, frame = 0
 1465              		@ frame_needed = 0, uses_anonymous_args = 0
 1466              		@ link register save eliminated.
 891:Drivers/STM32F1xx_HAL_Driver/Src/stm32f1xx_hal_adc_ex.c ****   uint32_t tmp_jdr = 0U;
 1467              		.loc 1 891 3 view .LVU425
 892:Drivers/STM32F1xx_HAL_Driver/Src/stm32f1xx_hal_adc_ex.c ****   
 893:Drivers/STM32F1xx_HAL_Driver/Src/stm32f1xx_hal_adc_ex.c ****   /* Check the parameters */
 894:Drivers/STM32F1xx_HAL_Driver/Src/stm32f1xx_hal_adc_ex.c ****   assert_param(IS_ADC_ALL_INSTANCE(hadc->Instance));
 1468              		.loc 1 894 3 view .LVU426
 895:Drivers/STM32F1xx_HAL_Driver/Src/stm32f1xx_hal_adc_ex.c ****   assert_param(IS_ADC_INJECTED_RANK(InjectedRank));
 1469              		.loc 1 895 3 view .LVU427
 896:Drivers/STM32F1xx_HAL_Driver/Src/stm32f1xx_hal_adc_ex.c ****   
 897:Drivers/STM32F1xx_HAL_Driver/Src/stm32f1xx_hal_adc_ex.c ****   /* Get ADC converted value */ 
 898:Drivers/STM32F1xx_HAL_Driver/Src/stm32f1xx_hal_adc_ex.c ****   switch(InjectedRank)
 1470              		.loc 1 898 3 view .LVU428
 1471 0000 0329     		cmp	r1, #3
 1472 0002 09D0     		beq	.L132
 1473 0004 0429     		cmp	r1, #4
 1474 0006 04D0     		beq	.L133
 1475 0008 0229     		cmp	r1, #2
 1476 000a 08D0     		beq	.L138
 899:Drivers/STM32F1xx_HAL_Driver/Src/stm32f1xx_hal_adc_ex.c ****   {  
 900:Drivers/STM32F1xx_HAL_Driver/Src/stm32f1xx_hal_adc_ex.c ****     case ADC_INJECTED_RANK_4: 
 901:Drivers/STM32F1xx_HAL_Driver/Src/stm32f1xx_hal_adc_ex.c ****       tmp_jdr = hadc->Instance->JDR4;
 902:Drivers/STM32F1xx_HAL_Driver/Src/stm32f1xx_hal_adc_ex.c ****       break;
 903:Drivers/STM32F1xx_HAL_Driver/Src/stm32f1xx_hal_adc_ex.c ****     case ADC_INJECTED_RANK_3: 
 904:Drivers/STM32F1xx_HAL_Driver/Src/stm32f1xx_hal_adc_ex.c ****       tmp_jdr = hadc->Instance->JDR3;
 905:Drivers/STM32F1xx_HAL_Driver/Src/stm32f1xx_hal_adc_ex.c ****       break;
 906:Drivers/STM32F1xx_HAL_Driver/Src/stm32f1xx_hal_adc_ex.c ****     case ADC_INJECTED_RANK_2: 
 907:Drivers/STM32F1xx_HAL_Driver/Src/stm32f1xx_hal_adc_ex.c ****       tmp_jdr = hadc->Instance->JDR2;
 908:Drivers/STM32F1xx_HAL_Driver/Src/stm32f1xx_hal_adc_ex.c ****       break;
 909:Drivers/STM32F1xx_HAL_Driver/Src/stm32f1xx_hal_adc_ex.c ****     case ADC_INJECTED_RANK_1:
 910:Drivers/STM32F1xx_HAL_Driver/Src/stm32f1xx_hal_adc_ex.c ****     default:
 911:Drivers/STM32F1xx_HAL_Driver/Src/stm32f1xx_hal_adc_ex.c ****       tmp_jdr = hadc->Instance->JDR1;
 1477              		.loc 1 911 7 view .LVU429
 1478              		.loc 1 911 21 is_stmt 0 view .LVU430
 1479 000c 0368     		ldr	r3, [r0]
 1480              		.loc 1 911 15 view .LVU431
 1481 000e D86B     		ldr	r0, [r3, #60]
 1482              	.LVL84:
 912:Drivers/STM32F1xx_HAL_Driver/Src/stm32f1xx_hal_adc_ex.c ****       break;
 1483              		.loc 1 912 7 is_stmt 1 view .LVU432
 913:Drivers/STM32F1xx_HAL_Driver/Src/stm32f1xx_hal_adc_ex.c ****   }
 914:Drivers/STM32F1xx_HAL_Driver/Src/stm32f1xx_hal_adc_ex.c ****   
 915:Drivers/STM32F1xx_HAL_Driver/Src/stm32f1xx_hal_adc_ex.c ****   /* Return ADC converted value */ 
 916:Drivers/STM32F1xx_HAL_Driver/Src/stm32f1xx_hal_adc_ex.c ****   return tmp_jdr;
ARM GAS  /tmp/ccKo6yLr.s 			page 46


 1484              		.loc 1 916 3 view .LVU433
 917:Drivers/STM32F1xx_HAL_Driver/Src/stm32f1xx_hal_adc_ex.c **** }
 1485              		.loc 1 917 1 is_stmt 0 view .LVU434
 1486 0010 7047     		bx	lr
 1487              	.LVL85:
 1488              	.L133:
 901:Drivers/STM32F1xx_HAL_Driver/Src/stm32f1xx_hal_adc_ex.c ****       break;
 1489              		.loc 1 901 7 is_stmt 1 view .LVU435
 901:Drivers/STM32F1xx_HAL_Driver/Src/stm32f1xx_hal_adc_ex.c ****       break;
 1490              		.loc 1 901 21 is_stmt 0 view .LVU436
 1491 0012 0368     		ldr	r3, [r0]
 901:Drivers/STM32F1xx_HAL_Driver/Src/stm32f1xx_hal_adc_ex.c ****       break;
 1492              		.loc 1 901 15 view .LVU437
 1493 0014 986C     		ldr	r0, [r3, #72]
 1494              	.LVL86:
 902:Drivers/STM32F1xx_HAL_Driver/Src/stm32f1xx_hal_adc_ex.c ****     case ADC_INJECTED_RANK_3: 
 1495              		.loc 1 902 7 is_stmt 1 view .LVU438
 1496 0016 7047     		bx	lr
 1497              	.LVL87:
 1498              	.L132:
 904:Drivers/STM32F1xx_HAL_Driver/Src/stm32f1xx_hal_adc_ex.c ****       break;
 1499              		.loc 1 904 7 view .LVU439
 904:Drivers/STM32F1xx_HAL_Driver/Src/stm32f1xx_hal_adc_ex.c ****       break;
 1500              		.loc 1 904 21 is_stmt 0 view .LVU440
 1501 0018 0368     		ldr	r3, [r0]
 904:Drivers/STM32F1xx_HAL_Driver/Src/stm32f1xx_hal_adc_ex.c ****       break;
 1502              		.loc 1 904 15 view .LVU441
 1503 001a 586C     		ldr	r0, [r3, #68]
 1504              	.LVL88:
 905:Drivers/STM32F1xx_HAL_Driver/Src/stm32f1xx_hal_adc_ex.c ****     case ADC_INJECTED_RANK_2: 
 1505              		.loc 1 905 7 is_stmt 1 view .LVU442
 1506 001c 7047     		bx	lr
 1507              	.LVL89:
 1508              	.L138:
 907:Drivers/STM32F1xx_HAL_Driver/Src/stm32f1xx_hal_adc_ex.c ****       break;
 1509              		.loc 1 907 7 view .LVU443
 907:Drivers/STM32F1xx_HAL_Driver/Src/stm32f1xx_hal_adc_ex.c ****       break;
 1510              		.loc 1 907 21 is_stmt 0 view .LVU444
 1511 001e 0368     		ldr	r3, [r0]
 907:Drivers/STM32F1xx_HAL_Driver/Src/stm32f1xx_hal_adc_ex.c ****       break;
 1512              		.loc 1 907 15 view .LVU445
 1513 0020 186C     		ldr	r0, [r3, #64]
 1514              	.LVL90:
 908:Drivers/STM32F1xx_HAL_Driver/Src/stm32f1xx_hal_adc_ex.c ****     case ADC_INJECTED_RANK_1:
 1515              		.loc 1 908 7 is_stmt 1 view .LVU446
 1516 0022 7047     		bx	lr
 1517              		.cfi_endproc
 1518              	.LFE73:
 1520              		.section	.text.HAL_ADCEx_MultiModeGetValue,"ax",%progbits
 1521              		.align	1
 1522              		.global	HAL_ADCEx_MultiModeGetValue
 1523              		.syntax unified
 1524              		.thumb
 1525              		.thumb_func
 1526              		.fpu softvfp
 1528              	HAL_ADCEx_MultiModeGetValue:
 1529              	.LVL91:
ARM GAS  /tmp/ccKo6yLr.s 			page 47


 1530              	.LFB74:
 918:Drivers/STM32F1xx_HAL_Driver/Src/stm32f1xx_hal_adc_ex.c **** 
 919:Drivers/STM32F1xx_HAL_Driver/Src/stm32f1xx_hal_adc_ex.c **** #if defined (STM32F103x6) || defined (STM32F103xB) || defined (STM32F105xC) || defined (STM32F107xC
 920:Drivers/STM32F1xx_HAL_Driver/Src/stm32f1xx_hal_adc_ex.c **** /**
 921:Drivers/STM32F1xx_HAL_Driver/Src/stm32f1xx_hal_adc_ex.c ****   * @brief  Returns the last ADC Master&Slave regular conversions results data
 922:Drivers/STM32F1xx_HAL_Driver/Src/stm32f1xx_hal_adc_ex.c ****   *         in the selected multi mode.
 923:Drivers/STM32F1xx_HAL_Driver/Src/stm32f1xx_hal_adc_ex.c ****   * @param  hadc: ADC handle of ADC master (handle of ADC slave must not be used)
 924:Drivers/STM32F1xx_HAL_Driver/Src/stm32f1xx_hal_adc_ex.c ****   * @retval The converted data value.
 925:Drivers/STM32F1xx_HAL_Driver/Src/stm32f1xx_hal_adc_ex.c ****   */
 926:Drivers/STM32F1xx_HAL_Driver/Src/stm32f1xx_hal_adc_ex.c **** uint32_t HAL_ADCEx_MultiModeGetValue(ADC_HandleTypeDef* hadc)
 927:Drivers/STM32F1xx_HAL_Driver/Src/stm32f1xx_hal_adc_ex.c **** {
 1531              		.loc 1 927 1 view -0
 1532              		.cfi_startproc
 1533              		@ args = 0, pretend = 0, frame = 0
 1534              		@ frame_needed = 0, uses_anonymous_args = 0
 1535              		@ link register save eliminated.
 928:Drivers/STM32F1xx_HAL_Driver/Src/stm32f1xx_hal_adc_ex.c ****   uint32_t tmpDR = 0U;
 1536              		.loc 1 928 3 view .LVU448
 929:Drivers/STM32F1xx_HAL_Driver/Src/stm32f1xx_hal_adc_ex.c ****   
 930:Drivers/STM32F1xx_HAL_Driver/Src/stm32f1xx_hal_adc_ex.c ****   /* Check the parameters */
 931:Drivers/STM32F1xx_HAL_Driver/Src/stm32f1xx_hal_adc_ex.c ****   assert_param(IS_ADC_MULTIMODE_MASTER_INSTANCE(hadc->Instance));
 1537              		.loc 1 931 3 view .LVU449
 932:Drivers/STM32F1xx_HAL_Driver/Src/stm32f1xx_hal_adc_ex.c ****   
 933:Drivers/STM32F1xx_HAL_Driver/Src/stm32f1xx_hal_adc_ex.c ****   /* Check the parameters */
 934:Drivers/STM32F1xx_HAL_Driver/Src/stm32f1xx_hal_adc_ex.c ****   assert_param(IS_ADC_ALL_INSTANCE(hadc->Instance));
 1538              		.loc 1 934 3 view .LVU450
 935:Drivers/STM32F1xx_HAL_Driver/Src/stm32f1xx_hal_adc_ex.c **** 
 936:Drivers/STM32F1xx_HAL_Driver/Src/stm32f1xx_hal_adc_ex.c ****   /* Note: EOC flag is not cleared here by software because automatically     */
 937:Drivers/STM32F1xx_HAL_Driver/Src/stm32f1xx_hal_adc_ex.c ****   /*       cleared by hardware when reading register DR.                      */
 938:Drivers/STM32F1xx_HAL_Driver/Src/stm32f1xx_hal_adc_ex.c ****   
 939:Drivers/STM32F1xx_HAL_Driver/Src/stm32f1xx_hal_adc_ex.c ****   /* On STM32F1 devices, ADC1 data register DR contains ADC2 conversions      */
 940:Drivers/STM32F1xx_HAL_Driver/Src/stm32f1xx_hal_adc_ex.c ****   /* only if ADC1 DMA mode is enabled.                                        */
 941:Drivers/STM32F1xx_HAL_Driver/Src/stm32f1xx_hal_adc_ex.c ****   tmpDR = hadc->Instance->DR;
 1539              		.loc 1 941 3 view .LVU451
 1540              		.loc 1 941 15 is_stmt 0 view .LVU452
 1541 0000 0368     		ldr	r3, [r0]
 1542              		.loc 1 941 9 view .LVU453
 1543 0002 D86C     		ldr	r0, [r3, #76]
 1544              	.LVL92:
 942:Drivers/STM32F1xx_HAL_Driver/Src/stm32f1xx_hal_adc_ex.c **** 
 943:Drivers/STM32F1xx_HAL_Driver/Src/stm32f1xx_hal_adc_ex.c ****   if (HAL_IS_BIT_CLR(ADC1->CR2, ADC_CR2_DMA))
 1545              		.loc 1 943 3 is_stmt 1 view .LVU454
 1546              		.loc 1 943 7 is_stmt 0 view .LVU455
 1547 0004 044B     		ldr	r3, .L141
 1548 0006 9B68     		ldr	r3, [r3, #8]
 1549              		.loc 1 943 6 view .LVU456
 1550 0008 13F4807F 		tst	r3, #256
 1551 000c 03D1     		bne	.L139
 944:Drivers/STM32F1xx_HAL_Driver/Src/stm32f1xx_hal_adc_ex.c ****   {
 945:Drivers/STM32F1xx_HAL_Driver/Src/stm32f1xx_hal_adc_ex.c ****     tmpDR |= (ADC2->DR << 16U);
 1552              		.loc 1 945 5 is_stmt 1 view .LVU457
 1553              		.loc 1 945 19 is_stmt 0 view .LVU458
 1554 000e 034B     		ldr	r3, .L141+4
 1555 0010 DB6C     		ldr	r3, [r3, #76]
 1556              		.loc 1 945 11 view .LVU459
 1557 0012 40EA0340 		orr	r0, r0, r3, lsl #16
 1558              	.LVL93:
ARM GAS  /tmp/ccKo6yLr.s 			page 48


 946:Drivers/STM32F1xx_HAL_Driver/Src/stm32f1xx_hal_adc_ex.c ****   }
 947:Drivers/STM32F1xx_HAL_Driver/Src/stm32f1xx_hal_adc_ex.c ****     
 948:Drivers/STM32F1xx_HAL_Driver/Src/stm32f1xx_hal_adc_ex.c ****   /* Return ADC converted value */ 
 949:Drivers/STM32F1xx_HAL_Driver/Src/stm32f1xx_hal_adc_ex.c ****   return tmpDR;
 1559              		.loc 1 949 3 is_stmt 1 view .LVU460
 1560              	.L139:
 950:Drivers/STM32F1xx_HAL_Driver/Src/stm32f1xx_hal_adc_ex.c **** }
 1561              		.loc 1 950 1 is_stmt 0 view .LVU461
 1562 0016 7047     		bx	lr
 1563              	.L142:
 1564              		.align	2
 1565              	.L141:
 1566 0018 00240140 		.word	1073816576
 1567 001c 00280140 		.word	1073817600
 1568              		.cfi_endproc
 1569              	.LFE74:
 1571              		.section	.text.HAL_ADCEx_InjectedConvCpltCallback,"ax",%progbits
 1572              		.align	1
 1573              		.weak	HAL_ADCEx_InjectedConvCpltCallback
 1574              		.syntax unified
 1575              		.thumb
 1576              		.thumb_func
 1577              		.fpu softvfp
 1579              	HAL_ADCEx_InjectedConvCpltCallback:
 1580              	.LVL94:
 1581              	.LFB75:
 951:Drivers/STM32F1xx_HAL_Driver/Src/stm32f1xx_hal_adc_ex.c **** #endif /* defined STM32F103x6 || defined STM32F103xB || defined STM32F105xC || defined STM32F107xC 
 952:Drivers/STM32F1xx_HAL_Driver/Src/stm32f1xx_hal_adc_ex.c **** 
 953:Drivers/STM32F1xx_HAL_Driver/Src/stm32f1xx_hal_adc_ex.c **** /**
 954:Drivers/STM32F1xx_HAL_Driver/Src/stm32f1xx_hal_adc_ex.c ****   * @brief  Injected conversion complete callback in non blocking mode 
 955:Drivers/STM32F1xx_HAL_Driver/Src/stm32f1xx_hal_adc_ex.c ****   * @param  hadc: ADC handle
 956:Drivers/STM32F1xx_HAL_Driver/Src/stm32f1xx_hal_adc_ex.c ****   * @retval None
 957:Drivers/STM32F1xx_HAL_Driver/Src/stm32f1xx_hal_adc_ex.c ****   */
 958:Drivers/STM32F1xx_HAL_Driver/Src/stm32f1xx_hal_adc_ex.c **** __weak void HAL_ADCEx_InjectedConvCpltCallback(ADC_HandleTypeDef* hadc)
 959:Drivers/STM32F1xx_HAL_Driver/Src/stm32f1xx_hal_adc_ex.c **** {
 1582              		.loc 1 959 1 is_stmt 1 view -0
 1583              		.cfi_startproc
 1584              		@ args = 0, pretend = 0, frame = 0
 1585              		@ frame_needed = 0, uses_anonymous_args = 0
 1586              		@ link register save eliminated.
 960:Drivers/STM32F1xx_HAL_Driver/Src/stm32f1xx_hal_adc_ex.c ****   /* Prevent unused argument(s) compilation warning */
 961:Drivers/STM32F1xx_HAL_Driver/Src/stm32f1xx_hal_adc_ex.c ****   UNUSED(hadc);
 1587              		.loc 1 961 3 view .LVU463
 962:Drivers/STM32F1xx_HAL_Driver/Src/stm32f1xx_hal_adc_ex.c ****   /* NOTE : This function Should not be modified, when the callback is needed,
 963:Drivers/STM32F1xx_HAL_Driver/Src/stm32f1xx_hal_adc_ex.c ****             the HAL_ADCEx_InjectedConvCpltCallback could be implemented in the user file
 964:Drivers/STM32F1xx_HAL_Driver/Src/stm32f1xx_hal_adc_ex.c ****   */
 965:Drivers/STM32F1xx_HAL_Driver/Src/stm32f1xx_hal_adc_ex.c **** }
 1588              		.loc 1 965 1 is_stmt 0 view .LVU464
 1589 0000 7047     		bx	lr
 1590              		.cfi_endproc
 1591              	.LFE75:
 1593              		.section	.text.HAL_ADCEx_InjectedConfigChannel,"ax",%progbits
 1594              		.align	1
 1595              		.global	HAL_ADCEx_InjectedConfigChannel
 1596              		.syntax unified
 1597              		.thumb
 1598              		.thumb_func
ARM GAS  /tmp/ccKo6yLr.s 			page 49


 1599              		.fpu softvfp
 1601              	HAL_ADCEx_InjectedConfigChannel:
 1602              	.LVL95:
 1603              	.LFB76:
 966:Drivers/STM32F1xx_HAL_Driver/Src/stm32f1xx_hal_adc_ex.c **** 
 967:Drivers/STM32F1xx_HAL_Driver/Src/stm32f1xx_hal_adc_ex.c **** /**
 968:Drivers/STM32F1xx_HAL_Driver/Src/stm32f1xx_hal_adc_ex.c ****   * @}
 969:Drivers/STM32F1xx_HAL_Driver/Src/stm32f1xx_hal_adc_ex.c ****   */
 970:Drivers/STM32F1xx_HAL_Driver/Src/stm32f1xx_hal_adc_ex.c **** 
 971:Drivers/STM32F1xx_HAL_Driver/Src/stm32f1xx_hal_adc_ex.c **** /** @defgroup ADCEx_Exported_Functions_Group2 Extended Peripheral Control functions
 972:Drivers/STM32F1xx_HAL_Driver/Src/stm32f1xx_hal_adc_ex.c ****   * @brief    Extended Peripheral Control functions
 973:Drivers/STM32F1xx_HAL_Driver/Src/stm32f1xx_hal_adc_ex.c ****   *
 974:Drivers/STM32F1xx_HAL_Driver/Src/stm32f1xx_hal_adc_ex.c **** @verbatim   
 975:Drivers/STM32F1xx_HAL_Driver/Src/stm32f1xx_hal_adc_ex.c ****  ===============================================================================
 976:Drivers/STM32F1xx_HAL_Driver/Src/stm32f1xx_hal_adc_ex.c ****              ##### Peripheral Control functions #####
 977:Drivers/STM32F1xx_HAL_Driver/Src/stm32f1xx_hal_adc_ex.c ****  ===============================================================================  
 978:Drivers/STM32F1xx_HAL_Driver/Src/stm32f1xx_hal_adc_ex.c ****     [..]  This section provides functions allowing to:
 979:Drivers/STM32F1xx_HAL_Driver/Src/stm32f1xx_hal_adc_ex.c ****       (+) Configure channels on injected group
 980:Drivers/STM32F1xx_HAL_Driver/Src/stm32f1xx_hal_adc_ex.c ****       (+) Configure multimode
 981:Drivers/STM32F1xx_HAL_Driver/Src/stm32f1xx_hal_adc_ex.c **** 
 982:Drivers/STM32F1xx_HAL_Driver/Src/stm32f1xx_hal_adc_ex.c **** @endverbatim
 983:Drivers/STM32F1xx_HAL_Driver/Src/stm32f1xx_hal_adc_ex.c ****   * @{
 984:Drivers/STM32F1xx_HAL_Driver/Src/stm32f1xx_hal_adc_ex.c ****   */
 985:Drivers/STM32F1xx_HAL_Driver/Src/stm32f1xx_hal_adc_ex.c **** 
 986:Drivers/STM32F1xx_HAL_Driver/Src/stm32f1xx_hal_adc_ex.c **** /**
 987:Drivers/STM32F1xx_HAL_Driver/Src/stm32f1xx_hal_adc_ex.c ****   * @brief  Configures the ADC injected group and the selected channel to be
 988:Drivers/STM32F1xx_HAL_Driver/Src/stm32f1xx_hal_adc_ex.c ****   *         linked to the injected group.
 989:Drivers/STM32F1xx_HAL_Driver/Src/stm32f1xx_hal_adc_ex.c ****   * @note   Possibility to update parameters on the fly:
 990:Drivers/STM32F1xx_HAL_Driver/Src/stm32f1xx_hal_adc_ex.c ****   *         This function initializes injected group, following calls to this 
 991:Drivers/STM32F1xx_HAL_Driver/Src/stm32f1xx_hal_adc_ex.c ****   *         function can be used to reconfigure some parameters of structure
 992:Drivers/STM32F1xx_HAL_Driver/Src/stm32f1xx_hal_adc_ex.c ****   *         "ADC_InjectionConfTypeDef" on the fly, without resetting the ADC.
 993:Drivers/STM32F1xx_HAL_Driver/Src/stm32f1xx_hal_adc_ex.c ****   *         The setting of these parameters is conditioned to ADC state: 
 994:Drivers/STM32F1xx_HAL_Driver/Src/stm32f1xx_hal_adc_ex.c ****   *         this function must be called when ADC is not under conversion.
 995:Drivers/STM32F1xx_HAL_Driver/Src/stm32f1xx_hal_adc_ex.c ****   * @param  hadc: ADC handle
 996:Drivers/STM32F1xx_HAL_Driver/Src/stm32f1xx_hal_adc_ex.c ****   * @param  sConfigInjected: Structure of ADC injected group and ADC channel for
 997:Drivers/STM32F1xx_HAL_Driver/Src/stm32f1xx_hal_adc_ex.c ****   *         injected group.
 998:Drivers/STM32F1xx_HAL_Driver/Src/stm32f1xx_hal_adc_ex.c ****   * @retval None
 999:Drivers/STM32F1xx_HAL_Driver/Src/stm32f1xx_hal_adc_ex.c ****   */
1000:Drivers/STM32F1xx_HAL_Driver/Src/stm32f1xx_hal_adc_ex.c **** HAL_StatusTypeDef HAL_ADCEx_InjectedConfigChannel(ADC_HandleTypeDef* hadc, ADC_InjectionConfTypeDef
1001:Drivers/STM32F1xx_HAL_Driver/Src/stm32f1xx_hal_adc_ex.c **** {
 1604              		.loc 1 1001 1 is_stmt 1 view -0
 1605              		.cfi_startproc
 1606              		@ args = 0, pretend = 0, frame = 8
 1607              		@ frame_needed = 0, uses_anonymous_args = 0
 1608              		@ link register save eliminated.
 1609              		.loc 1 1001 1 is_stmt 0 view .LVU466
 1610 0000 70B4     		push	{r4, r5, r6}
 1611              	.LCFI24:
 1612              		.cfi_def_cfa_offset 12
 1613              		.cfi_offset 4, -12
 1614              		.cfi_offset 5, -8
 1615              		.cfi_offset 6, -4
 1616 0002 83B0     		sub	sp, sp, #12
 1617              	.LCFI25:
 1618              		.cfi_def_cfa_offset 24
 1619 0004 0346     		mov	r3, r0
1002:Drivers/STM32F1xx_HAL_Driver/Src/stm32f1xx_hal_adc_ex.c ****   HAL_StatusTypeDef tmp_hal_status = HAL_OK;
ARM GAS  /tmp/ccKo6yLr.s 			page 50


 1620              		.loc 1 1002 3 is_stmt 1 view .LVU467
 1621              	.LVL96:
1003:Drivers/STM32F1xx_HAL_Driver/Src/stm32f1xx_hal_adc_ex.c ****   __IO uint32_t wait_loop_index = 0U;
 1622              		.loc 1 1003 3 view .LVU468
 1623              		.loc 1 1003 17 is_stmt 0 view .LVU469
 1624 0006 0022     		movs	r2, #0
 1625 0008 0192     		str	r2, [sp, #4]
1004:Drivers/STM32F1xx_HAL_Driver/Src/stm32f1xx_hal_adc_ex.c ****   
1005:Drivers/STM32F1xx_HAL_Driver/Src/stm32f1xx_hal_adc_ex.c ****   /* Check the parameters */
1006:Drivers/STM32F1xx_HAL_Driver/Src/stm32f1xx_hal_adc_ex.c ****   assert_param(IS_ADC_ALL_INSTANCE(hadc->Instance));
 1626              		.loc 1 1006 3 is_stmt 1 view .LVU470
1007:Drivers/STM32F1xx_HAL_Driver/Src/stm32f1xx_hal_adc_ex.c ****   assert_param(IS_ADC_CHANNEL(sConfigInjected->InjectedChannel));
 1627              		.loc 1 1007 3 view .LVU471
1008:Drivers/STM32F1xx_HAL_Driver/Src/stm32f1xx_hal_adc_ex.c ****   assert_param(IS_ADC_SAMPLE_TIME(sConfigInjected->InjectedSamplingTime));
 1628              		.loc 1 1008 3 view .LVU472
1009:Drivers/STM32F1xx_HAL_Driver/Src/stm32f1xx_hal_adc_ex.c ****   assert_param(IS_FUNCTIONAL_STATE(sConfigInjected->AutoInjectedConv));
 1629              		.loc 1 1009 3 view .LVU473
1010:Drivers/STM32F1xx_HAL_Driver/Src/stm32f1xx_hal_adc_ex.c ****   assert_param(IS_ADC_EXTTRIGINJEC(sConfigInjected->ExternalTrigInjecConv));
 1630              		.loc 1 1010 3 view .LVU474
1011:Drivers/STM32F1xx_HAL_Driver/Src/stm32f1xx_hal_adc_ex.c ****   assert_param(IS_ADC_RANGE(sConfigInjected->InjectedOffset));
 1631              		.loc 1 1011 3 view .LVU475
1012:Drivers/STM32F1xx_HAL_Driver/Src/stm32f1xx_hal_adc_ex.c ****   
1013:Drivers/STM32F1xx_HAL_Driver/Src/stm32f1xx_hal_adc_ex.c ****   if(hadc->Init.ScanConvMode != ADC_SCAN_DISABLE)
 1632              		.loc 1 1013 3 view .LVU476
 1633              		.loc 1 1013 16 is_stmt 0 view .LVU477
 1634 000a 8068     		ldr	r0, [r0, #8]
 1635              	.LVL97:
1014:Drivers/STM32F1xx_HAL_Driver/Src/stm32f1xx_hal_adc_ex.c ****   {
1015:Drivers/STM32F1xx_HAL_Driver/Src/stm32f1xx_hal_adc_ex.c ****     assert_param(IS_ADC_INJECTED_RANK(sConfigInjected->InjectedRank));
 1636              		.loc 1 1015 5 is_stmt 1 view .LVU478
1016:Drivers/STM32F1xx_HAL_Driver/Src/stm32f1xx_hal_adc_ex.c ****     assert_param(IS_ADC_INJECTED_NB_CONV(sConfigInjected->InjectedNbrOfConversion));
 1637              		.loc 1 1016 5 view .LVU479
1017:Drivers/STM32F1xx_HAL_Driver/Src/stm32f1xx_hal_adc_ex.c ****     assert_param(IS_FUNCTIONAL_STATE(sConfigInjected->InjectedDiscontinuousConvMode));
 1638              		.loc 1 1017 5 view .LVU480
1018:Drivers/STM32F1xx_HAL_Driver/Src/stm32f1xx_hal_adc_ex.c ****   }
1019:Drivers/STM32F1xx_HAL_Driver/Src/stm32f1xx_hal_adc_ex.c ****   
1020:Drivers/STM32F1xx_HAL_Driver/Src/stm32f1xx_hal_adc_ex.c ****   /* Process locked */
1021:Drivers/STM32F1xx_HAL_Driver/Src/stm32f1xx_hal_adc_ex.c ****   __HAL_LOCK(hadc);
 1639              		.loc 1 1021 3 view .LVU481
 1640              		.loc 1 1021 3 view .LVU482
 1641 000c 93F82420 		ldrb	r2, [r3, #36]	@ zero_extendqisi2
 1642 0010 012A     		cmp	r2, #1
 1643 0012 00F00181 		beq	.L166
 1644              		.loc 1 1021 3 discriminator 2 view .LVU483
 1645 0016 0122     		movs	r2, #1
 1646 0018 83F82420 		strb	r2, [r3, #36]
 1647              		.loc 1 1021 3 discriminator 2 view .LVU484
1022:Drivers/STM32F1xx_HAL_Driver/Src/stm32f1xx_hal_adc_ex.c ****   
1023:Drivers/STM32F1xx_HAL_Driver/Src/stm32f1xx_hal_adc_ex.c ****   /* Configuration of injected group sequencer:                               */
1024:Drivers/STM32F1xx_HAL_Driver/Src/stm32f1xx_hal_adc_ex.c ****   /* - if scan mode is disabled, injected channels sequence length is set to  */
1025:Drivers/STM32F1xx_HAL_Driver/Src/stm32f1xx_hal_adc_ex.c ****   /*   0x00: 1 channel converted (channel on regular rank 1)                  */
1026:Drivers/STM32F1xx_HAL_Driver/Src/stm32f1xx_hal_adc_ex.c ****   /*   Parameter "InjectedNbrOfConversion" is discarded.                      */
1027:Drivers/STM32F1xx_HAL_Driver/Src/stm32f1xx_hal_adc_ex.c ****   /*   Note: Scan mode is present by hardware on this device and, if          */
1028:Drivers/STM32F1xx_HAL_Driver/Src/stm32f1xx_hal_adc_ex.c ****   /*   disabled, discards automatically nb of conversions. Anyway, nb of      */
1029:Drivers/STM32F1xx_HAL_Driver/Src/stm32f1xx_hal_adc_ex.c ****   /*   conversions is forced to 0x00 for alignment over all STM32 devices.    */
1030:Drivers/STM32F1xx_HAL_Driver/Src/stm32f1xx_hal_adc_ex.c ****   /* - if scan mode is enabled, injected channels sequence length is set to   */
1031:Drivers/STM32F1xx_HAL_Driver/Src/stm32f1xx_hal_adc_ex.c ****   /*   parameter "InjectedNbrOfConversion".                                   */
ARM GAS  /tmp/ccKo6yLr.s 			page 51


1032:Drivers/STM32F1xx_HAL_Driver/Src/stm32f1xx_hal_adc_ex.c ****   if (hadc->Init.ScanConvMode == ADC_SCAN_DISABLE)
 1648              		.loc 1 1032 3 discriminator 2 view .LVU485
 1649              		.loc 1 1032 6 is_stmt 0 discriminator 2 view .LVU486
 1650 001c 0028     		cmp	r0, #0
 1651 001e 4ED1     		bne	.L146
1033:Drivers/STM32F1xx_HAL_Driver/Src/stm32f1xx_hal_adc_ex.c ****   {
1034:Drivers/STM32F1xx_HAL_Driver/Src/stm32f1xx_hal_adc_ex.c ****     if (sConfigInjected->InjectedRank == ADC_INJECTED_RANK_1)
 1652              		.loc 1 1034 5 is_stmt 1 view .LVU487
 1653              		.loc 1 1034 24 is_stmt 0 view .LVU488
 1654 0020 4A68     		ldr	r2, [r1, #4]
 1655              		.loc 1 1034 8 view .LVU489
 1656 0022 012A     		cmp	r2, #1
 1657 0024 41D0     		beq	.L168
1035:Drivers/STM32F1xx_HAL_Driver/Src/stm32f1xx_hal_adc_ex.c ****     {
1036:Drivers/STM32F1xx_HAL_Driver/Src/stm32f1xx_hal_adc_ex.c ****       /* Clear the old SQx bits for all injected ranks */
1037:Drivers/STM32F1xx_HAL_Driver/Src/stm32f1xx_hal_adc_ex.c ****       MODIFY_REG(hadc->Instance->JSQR                             ,
1038:Drivers/STM32F1xx_HAL_Driver/Src/stm32f1xx_hal_adc_ex.c ****                  ADC_JSQR_JL   |
1039:Drivers/STM32F1xx_HAL_Driver/Src/stm32f1xx_hal_adc_ex.c ****                  ADC_JSQR_JSQ4 |
1040:Drivers/STM32F1xx_HAL_Driver/Src/stm32f1xx_hal_adc_ex.c ****                  ADC_JSQR_JSQ3 |
1041:Drivers/STM32F1xx_HAL_Driver/Src/stm32f1xx_hal_adc_ex.c ****                  ADC_JSQR_JSQ2 |
1042:Drivers/STM32F1xx_HAL_Driver/Src/stm32f1xx_hal_adc_ex.c ****                  ADC_JSQR_JSQ1                                    ,
1043:Drivers/STM32F1xx_HAL_Driver/Src/stm32f1xx_hal_adc_ex.c ****                  ADC_JSQR_RK_JL(sConfigInjected->InjectedChannel,
1044:Drivers/STM32F1xx_HAL_Driver/Src/stm32f1xx_hal_adc_ex.c ****                                   ADC_INJECTED_RANK_1,
1045:Drivers/STM32F1xx_HAL_Driver/Src/stm32f1xx_hal_adc_ex.c ****                                   0x01U));
1046:Drivers/STM32F1xx_HAL_Driver/Src/stm32f1xx_hal_adc_ex.c ****     }
1047:Drivers/STM32F1xx_HAL_Driver/Src/stm32f1xx_hal_adc_ex.c ****     /* If another injected rank than rank1 was intended to be set, and could  */
1048:Drivers/STM32F1xx_HAL_Driver/Src/stm32f1xx_hal_adc_ex.c ****     /* not due to ScanConvMode disabled, error is reported.                   */
1049:Drivers/STM32F1xx_HAL_Driver/Src/stm32f1xx_hal_adc_ex.c ****     else
1050:Drivers/STM32F1xx_HAL_Driver/Src/stm32f1xx_hal_adc_ex.c ****     {
1051:Drivers/STM32F1xx_HAL_Driver/Src/stm32f1xx_hal_adc_ex.c ****       /* Update ADC state machine to error */
1052:Drivers/STM32F1xx_HAL_Driver/Src/stm32f1xx_hal_adc_ex.c ****       SET_BIT(hadc->State, HAL_ADC_STATE_ERROR_CONFIG);
 1658              		.loc 1 1052 7 is_stmt 1 view .LVU490
 1659 0026 9A6A     		ldr	r2, [r3, #40]
 1660 0028 42F02002 		orr	r2, r2, #32
 1661 002c 9A62     		str	r2, [r3, #40]
1053:Drivers/STM32F1xx_HAL_Driver/Src/stm32f1xx_hal_adc_ex.c ****       
1054:Drivers/STM32F1xx_HAL_Driver/Src/stm32f1xx_hal_adc_ex.c ****       tmp_hal_status = HAL_ERROR;
 1662              		.loc 1 1054 7 view .LVU491
 1663              	.LVL98:
 1664              		.loc 1 1054 22 is_stmt 0 view .LVU492
 1665 002e 0120     		movs	r0, #1
 1666              	.LVL99:
 1667              	.L148:
1055:Drivers/STM32F1xx_HAL_Driver/Src/stm32f1xx_hal_adc_ex.c ****     }
1056:Drivers/STM32F1xx_HAL_Driver/Src/stm32f1xx_hal_adc_ex.c ****   }
1057:Drivers/STM32F1xx_HAL_Driver/Src/stm32f1xx_hal_adc_ex.c ****   else
1058:Drivers/STM32F1xx_HAL_Driver/Src/stm32f1xx_hal_adc_ex.c ****   {
1059:Drivers/STM32F1xx_HAL_Driver/Src/stm32f1xx_hal_adc_ex.c ****     /* Since injected channels rank conv. order depends on total number of   */
1060:Drivers/STM32F1xx_HAL_Driver/Src/stm32f1xx_hal_adc_ex.c ****     /* injected conversions, selected rank must be below or equal to total   */
1061:Drivers/STM32F1xx_HAL_Driver/Src/stm32f1xx_hal_adc_ex.c ****     /* number of injected conversions to be updated.                         */
1062:Drivers/STM32F1xx_HAL_Driver/Src/stm32f1xx_hal_adc_ex.c ****     if (sConfigInjected->InjectedRank <= sConfigInjected->InjectedNbrOfConversion)
1063:Drivers/STM32F1xx_HAL_Driver/Src/stm32f1xx_hal_adc_ex.c ****     {
1064:Drivers/STM32F1xx_HAL_Driver/Src/stm32f1xx_hal_adc_ex.c ****       /* Clear the old SQx bits for the selected rank */
1065:Drivers/STM32F1xx_HAL_Driver/Src/stm32f1xx_hal_adc_ex.c ****       /* Set the SQx bits for the selected rank */
1066:Drivers/STM32F1xx_HAL_Driver/Src/stm32f1xx_hal_adc_ex.c ****       MODIFY_REG(hadc->Instance->JSQR                                         ,
1067:Drivers/STM32F1xx_HAL_Driver/Src/stm32f1xx_hal_adc_ex.c ****                  
1068:Drivers/STM32F1xx_HAL_Driver/Src/stm32f1xx_hal_adc_ex.c ****                  ADC_JSQR_JL                                               |
ARM GAS  /tmp/ccKo6yLr.s 			page 52


1069:Drivers/STM32F1xx_HAL_Driver/Src/stm32f1xx_hal_adc_ex.c ****                  ADC_JSQR_RK_JL(ADC_JSQR_JSQ1,                         
1070:Drivers/STM32F1xx_HAL_Driver/Src/stm32f1xx_hal_adc_ex.c ****                                   sConfigInjected->InjectedRank,         
1071:Drivers/STM32F1xx_HAL_Driver/Src/stm32f1xx_hal_adc_ex.c ****                                   sConfigInjected->InjectedNbrOfConversion)   ,
1072:Drivers/STM32F1xx_HAL_Driver/Src/stm32f1xx_hal_adc_ex.c ****                  
1073:Drivers/STM32F1xx_HAL_Driver/Src/stm32f1xx_hal_adc_ex.c ****                  ADC_JSQR_JL_SHIFT(sConfigInjected->InjectedNbrOfConversion) |
1074:Drivers/STM32F1xx_HAL_Driver/Src/stm32f1xx_hal_adc_ex.c ****                  ADC_JSQR_RK_JL(sConfigInjected->InjectedChannel,      
1075:Drivers/STM32F1xx_HAL_Driver/Src/stm32f1xx_hal_adc_ex.c ****                                   sConfigInjected->InjectedRank,         
1076:Drivers/STM32F1xx_HAL_Driver/Src/stm32f1xx_hal_adc_ex.c ****                                   sConfigInjected->InjectedNbrOfConversion)    );
1077:Drivers/STM32F1xx_HAL_Driver/Src/stm32f1xx_hal_adc_ex.c ****     }
1078:Drivers/STM32F1xx_HAL_Driver/Src/stm32f1xx_hal_adc_ex.c ****     else
1079:Drivers/STM32F1xx_HAL_Driver/Src/stm32f1xx_hal_adc_ex.c ****     {
1080:Drivers/STM32F1xx_HAL_Driver/Src/stm32f1xx_hal_adc_ex.c ****       /* Clear the old SQx bits for the selected rank */
1081:Drivers/STM32F1xx_HAL_Driver/Src/stm32f1xx_hal_adc_ex.c ****       MODIFY_REG(hadc->Instance->JSQR                                       ,
1082:Drivers/STM32F1xx_HAL_Driver/Src/stm32f1xx_hal_adc_ex.c ****                  
1083:Drivers/STM32F1xx_HAL_Driver/Src/stm32f1xx_hal_adc_ex.c ****                  ADC_JSQR_JL                                               |
1084:Drivers/STM32F1xx_HAL_Driver/Src/stm32f1xx_hal_adc_ex.c ****                  ADC_JSQR_RK_JL(ADC_JSQR_JSQ1,                         
1085:Drivers/STM32F1xx_HAL_Driver/Src/stm32f1xx_hal_adc_ex.c ****                                   sConfigInjected->InjectedRank,         
1086:Drivers/STM32F1xx_HAL_Driver/Src/stm32f1xx_hal_adc_ex.c ****                                   sConfigInjected->InjectedNbrOfConversion) ,
1087:Drivers/STM32F1xx_HAL_Driver/Src/stm32f1xx_hal_adc_ex.c ****                  
1088:Drivers/STM32F1xx_HAL_Driver/Src/stm32f1xx_hal_adc_ex.c ****                  0x00000000U);
1089:Drivers/STM32F1xx_HAL_Driver/Src/stm32f1xx_hal_adc_ex.c ****     }
1090:Drivers/STM32F1xx_HAL_Driver/Src/stm32f1xx_hal_adc_ex.c ****   } 
1091:Drivers/STM32F1xx_HAL_Driver/Src/stm32f1xx_hal_adc_ex.c ****     
1092:Drivers/STM32F1xx_HAL_Driver/Src/stm32f1xx_hal_adc_ex.c ****   /* Configuration of injected group                                          */
1093:Drivers/STM32F1xx_HAL_Driver/Src/stm32f1xx_hal_adc_ex.c ****   /* Parameters update conditioned to ADC state:                              */
1094:Drivers/STM32F1xx_HAL_Driver/Src/stm32f1xx_hal_adc_ex.c ****   /* Parameters that can be updated only when ADC is disabled:                */
1095:Drivers/STM32F1xx_HAL_Driver/Src/stm32f1xx_hal_adc_ex.c ****   /*  - external trigger to start conversion                                  */
1096:Drivers/STM32F1xx_HAL_Driver/Src/stm32f1xx_hal_adc_ex.c ****   /* Parameters update not conditioned to ADC state:                          */
1097:Drivers/STM32F1xx_HAL_Driver/Src/stm32f1xx_hal_adc_ex.c ****   /*  - Automatic injected conversion                                         */
1098:Drivers/STM32F1xx_HAL_Driver/Src/stm32f1xx_hal_adc_ex.c ****   /*  - Injected discontinuous mode                                           */
1099:Drivers/STM32F1xx_HAL_Driver/Src/stm32f1xx_hal_adc_ex.c ****   /* Note: In case of ADC already enabled, caution to not launch an unwanted  */
1100:Drivers/STM32F1xx_HAL_Driver/Src/stm32f1xx_hal_adc_ex.c ****   /*       conversion while modifying register CR2 by writing 1 to bit ADON.  */
1101:Drivers/STM32F1xx_HAL_Driver/Src/stm32f1xx_hal_adc_ex.c ****   if (ADC_IS_ENABLE(hadc) == RESET)
 1668              		.loc 1 1101 3 is_stmt 1 view .LVU493
 1669              		.loc 1 1101 7 is_stmt 0 view .LVU494
 1670 0030 1C68     		ldr	r4, [r3]
 1671 0032 A268     		ldr	r2, [r4, #8]
 1672              		.loc 1 1101 6 view .LVU495
 1673 0034 12F0010F 		tst	r2, #1
 1674 0038 07D1     		bne	.L150
1102:Drivers/STM32F1xx_HAL_Driver/Src/stm32f1xx_hal_adc_ex.c ****   {    
1103:Drivers/STM32F1xx_HAL_Driver/Src/stm32f1xx_hal_adc_ex.c ****     MODIFY_REG(hadc->Instance->CR2                                           ,
 1675              		.loc 1 1103 5 is_stmt 1 view .LVU496
 1676 003a A268     		ldr	r2, [r4, #8]
 1677 003c 22F4E042 		bic	r2, r2, #28672
 1678 0040 22F00102 		bic	r2, r2, #1
 1679 0044 8D69     		ldr	r5, [r1, #24]
 1680 0046 2A43     		orrs	r2, r2, r5
 1681 0048 A260     		str	r2, [r4, #8]
 1682              	.L150:
1104:Drivers/STM32F1xx_HAL_Driver/Src/stm32f1xx_hal_adc_ex.c ****                ADC_CR2_JEXTSEL |
1105:Drivers/STM32F1xx_HAL_Driver/Src/stm32f1xx_hal_adc_ex.c ****                ADC_CR2_ADON                                                  ,
1106:Drivers/STM32F1xx_HAL_Driver/Src/stm32f1xx_hal_adc_ex.c ****                ADC_CFGR_JEXTSEL(hadc, sConfigInjected->ExternalTrigInjecConv) );
1107:Drivers/STM32F1xx_HAL_Driver/Src/stm32f1xx_hal_adc_ex.c ****   }
1108:Drivers/STM32F1xx_HAL_Driver/Src/stm32f1xx_hal_adc_ex.c ****   
1109:Drivers/STM32F1xx_HAL_Driver/Src/stm32f1xx_hal_adc_ex.c ****   
1110:Drivers/STM32F1xx_HAL_Driver/Src/stm32f1xx_hal_adc_ex.c ****   /* Configuration of injected group                                          */
ARM GAS  /tmp/ccKo6yLr.s 			page 53


1111:Drivers/STM32F1xx_HAL_Driver/Src/stm32f1xx_hal_adc_ex.c ****   /*  - Automatic injected conversion                                         */
1112:Drivers/STM32F1xx_HAL_Driver/Src/stm32f1xx_hal_adc_ex.c ****   /*  - Injected discontinuous mode                                           */
1113:Drivers/STM32F1xx_HAL_Driver/Src/stm32f1xx_hal_adc_ex.c ****   
1114:Drivers/STM32F1xx_HAL_Driver/Src/stm32f1xx_hal_adc_ex.c ****     /* Automatic injected conversion can be enabled if injected group         */
1115:Drivers/STM32F1xx_HAL_Driver/Src/stm32f1xx_hal_adc_ex.c ****     /* external triggers are disabled.                                        */
1116:Drivers/STM32F1xx_HAL_Driver/Src/stm32f1xx_hal_adc_ex.c ****     if (sConfigInjected->AutoInjectedConv == ENABLE)
 1683              		.loc 1 1116 5 view .LVU497
 1684              		.loc 1 1116 24 is_stmt 0 view .LVU498
 1685 004a 4A7D     		ldrb	r2, [r1, #21]	@ zero_extendqisi2
 1686              		.loc 1 1116 8 view .LVU499
 1687 004c 012A     		cmp	r2, #1
 1688 004e 61D0     		beq	.L169
 1689              	.LVL100:
 1690              	.L151:
1117:Drivers/STM32F1xx_HAL_Driver/Src/stm32f1xx_hal_adc_ex.c ****     {
1118:Drivers/STM32F1xx_HAL_Driver/Src/stm32f1xx_hal_adc_ex.c ****       if (sConfigInjected->ExternalTrigInjecConv == ADC_INJECTED_SOFTWARE_START)
1119:Drivers/STM32F1xx_HAL_Driver/Src/stm32f1xx_hal_adc_ex.c ****       {
1120:Drivers/STM32F1xx_HAL_Driver/Src/stm32f1xx_hal_adc_ex.c ****         SET_BIT(hadc->Instance->CR1, ADC_CR1_JAUTO);
1121:Drivers/STM32F1xx_HAL_Driver/Src/stm32f1xx_hal_adc_ex.c ****       }
1122:Drivers/STM32F1xx_HAL_Driver/Src/stm32f1xx_hal_adc_ex.c ****       else
1123:Drivers/STM32F1xx_HAL_Driver/Src/stm32f1xx_hal_adc_ex.c ****       {
1124:Drivers/STM32F1xx_HAL_Driver/Src/stm32f1xx_hal_adc_ex.c ****         /* Update ADC state machine to error */
1125:Drivers/STM32F1xx_HAL_Driver/Src/stm32f1xx_hal_adc_ex.c ****         SET_BIT(hadc->State, HAL_ADC_STATE_ERROR_CONFIG);
1126:Drivers/STM32F1xx_HAL_Driver/Src/stm32f1xx_hal_adc_ex.c ****         
1127:Drivers/STM32F1xx_HAL_Driver/Src/stm32f1xx_hal_adc_ex.c ****         tmp_hal_status = HAL_ERROR;
1128:Drivers/STM32F1xx_HAL_Driver/Src/stm32f1xx_hal_adc_ex.c ****       }
1129:Drivers/STM32F1xx_HAL_Driver/Src/stm32f1xx_hal_adc_ex.c ****     }
1130:Drivers/STM32F1xx_HAL_Driver/Src/stm32f1xx_hal_adc_ex.c ****     
1131:Drivers/STM32F1xx_HAL_Driver/Src/stm32f1xx_hal_adc_ex.c ****     /* Injected discontinuous can be enabled only if auto-injected mode is    */
1132:Drivers/STM32F1xx_HAL_Driver/Src/stm32f1xx_hal_adc_ex.c ****     /* disabled.                                                              */  
1133:Drivers/STM32F1xx_HAL_Driver/Src/stm32f1xx_hal_adc_ex.c ****     if (sConfigInjected->InjectedDiscontinuousConvMode == ENABLE)
 1691              		.loc 1 1133 5 is_stmt 1 view .LVU500
 1692              		.loc 1 1133 24 is_stmt 0 view .LVU501
 1693 0050 0A7D     		ldrb	r2, [r1, #20]	@ zero_extendqisi2
 1694              		.loc 1 1133 8 view .LVU502
 1695 0052 012A     		cmp	r2, #1
 1696 0054 6ED0     		beq	.L170
 1697              	.LVL101:
 1698              	.L153:
1134:Drivers/STM32F1xx_HAL_Driver/Src/stm32f1xx_hal_adc_ex.c ****     {
1135:Drivers/STM32F1xx_HAL_Driver/Src/stm32f1xx_hal_adc_ex.c ****       if (sConfigInjected->AutoInjectedConv == DISABLE)
1136:Drivers/STM32F1xx_HAL_Driver/Src/stm32f1xx_hal_adc_ex.c ****       {
1137:Drivers/STM32F1xx_HAL_Driver/Src/stm32f1xx_hal_adc_ex.c ****         SET_BIT(hadc->Instance->CR1, ADC_CR1_JDISCEN);
1138:Drivers/STM32F1xx_HAL_Driver/Src/stm32f1xx_hal_adc_ex.c ****       } 
1139:Drivers/STM32F1xx_HAL_Driver/Src/stm32f1xx_hal_adc_ex.c ****       else
1140:Drivers/STM32F1xx_HAL_Driver/Src/stm32f1xx_hal_adc_ex.c ****       {
1141:Drivers/STM32F1xx_HAL_Driver/Src/stm32f1xx_hal_adc_ex.c ****         /* Update ADC state machine to error */
1142:Drivers/STM32F1xx_HAL_Driver/Src/stm32f1xx_hal_adc_ex.c ****         SET_BIT(hadc->State, HAL_ADC_STATE_ERROR_CONFIG);
1143:Drivers/STM32F1xx_HAL_Driver/Src/stm32f1xx_hal_adc_ex.c ****         
1144:Drivers/STM32F1xx_HAL_Driver/Src/stm32f1xx_hal_adc_ex.c ****         tmp_hal_status = HAL_ERROR;
1145:Drivers/STM32F1xx_HAL_Driver/Src/stm32f1xx_hal_adc_ex.c ****       }
1146:Drivers/STM32F1xx_HAL_Driver/Src/stm32f1xx_hal_adc_ex.c ****     }
1147:Drivers/STM32F1xx_HAL_Driver/Src/stm32f1xx_hal_adc_ex.c **** 
1148:Drivers/STM32F1xx_HAL_Driver/Src/stm32f1xx_hal_adc_ex.c **** 
1149:Drivers/STM32F1xx_HAL_Driver/Src/stm32f1xx_hal_adc_ex.c ****   /* InjectedChannel sampling time configuration */
1150:Drivers/STM32F1xx_HAL_Driver/Src/stm32f1xx_hal_adc_ex.c ****   /* For channels 10 to 17 */
1151:Drivers/STM32F1xx_HAL_Driver/Src/stm32f1xx_hal_adc_ex.c ****   if (sConfigInjected->InjectedChannel >= ADC_CHANNEL_10)
ARM GAS  /tmp/ccKo6yLr.s 			page 54


 1699              		.loc 1 1151 3 is_stmt 1 view .LVU503
 1700              		.loc 1 1151 22 is_stmt 0 view .LVU504
 1701 0056 0A68     		ldr	r2, [r1]
 1702              		.loc 1 1151 6 view .LVU505
 1703 0058 092A     		cmp	r2, #9
 1704 005a 79D9     		bls	.L155
1152:Drivers/STM32F1xx_HAL_Driver/Src/stm32f1xx_hal_adc_ex.c ****   {
1153:Drivers/STM32F1xx_HAL_Driver/Src/stm32f1xx_hal_adc_ex.c ****     MODIFY_REG(hadc->Instance->SMPR1                                                             ,
 1705              		.loc 1 1153 5 is_stmt 1 view .LVU506
 1706 005c 1D68     		ldr	r5, [r3]
 1707 005e EC68     		ldr	r4, [r5, #12]
 1708 0060 02EB4202 		add	r2, r2, r2, lsl #1
 1709 0064 1E3A     		subs	r2, r2, #30
 1710 0066 4FF0070C 		mov	ip, #7
 1711 006a 0CFA02FC 		lsl	ip, ip, r2
 1712 006e 24EA0C04 		bic	r4, r4, ip
 1713 0072 8E68     		ldr	r6, [r1, #8]
 1714 0074 06FA02F2 		lsl	r2, r6, r2
 1715 0078 2243     		orrs	r2, r2, r4
 1716 007a EA60     		str	r2, [r5, #12]
 1717              	.L156:
1154:Drivers/STM32F1xx_HAL_Driver/Src/stm32f1xx_hal_adc_ex.c ****                ADC_SMPR1(ADC_SMPR1_SMP10, sConfigInjected->InjectedChannel)                      ,
1155:Drivers/STM32F1xx_HAL_Driver/Src/stm32f1xx_hal_adc_ex.c ****                ADC_SMPR1(sConfigInjected->InjectedSamplingTime, sConfigInjected->InjectedChannel) )
1156:Drivers/STM32F1xx_HAL_Driver/Src/stm32f1xx_hal_adc_ex.c ****   }
1157:Drivers/STM32F1xx_HAL_Driver/Src/stm32f1xx_hal_adc_ex.c ****   else /* For channels 0 to 9 */
1158:Drivers/STM32F1xx_HAL_Driver/Src/stm32f1xx_hal_adc_ex.c ****   {
1159:Drivers/STM32F1xx_HAL_Driver/Src/stm32f1xx_hal_adc_ex.c ****     MODIFY_REG(hadc->Instance->SMPR2                                                             ,
1160:Drivers/STM32F1xx_HAL_Driver/Src/stm32f1xx_hal_adc_ex.c ****                ADC_SMPR2(ADC_SMPR2_SMP0, sConfigInjected->InjectedChannel)                       ,
1161:Drivers/STM32F1xx_HAL_Driver/Src/stm32f1xx_hal_adc_ex.c ****                ADC_SMPR2(sConfigInjected->InjectedSamplingTime, sConfigInjected->InjectedChannel) )
1162:Drivers/STM32F1xx_HAL_Driver/Src/stm32f1xx_hal_adc_ex.c ****   }
1163:Drivers/STM32F1xx_HAL_Driver/Src/stm32f1xx_hal_adc_ex.c ****   
1164:Drivers/STM32F1xx_HAL_Driver/Src/stm32f1xx_hal_adc_ex.c ****   /* If ADC1 InjectedChannel_16 or InjectedChannel_17 is selected, enable Temperature sensor  */
1165:Drivers/STM32F1xx_HAL_Driver/Src/stm32f1xx_hal_adc_ex.c ****   /* and VREFINT measurement path.                                            */
1166:Drivers/STM32F1xx_HAL_Driver/Src/stm32f1xx_hal_adc_ex.c ****   if ((sConfigInjected->InjectedChannel == ADC_CHANNEL_TEMPSENSOR) ||
 1718              		.loc 1 1166 3 view .LVU507
 1719              		.loc 1 1166 23 is_stmt 0 view .LVU508
 1720 007c 0A68     		ldr	r2, [r1]
 1721              		.loc 1 1166 68 view .LVU509
 1722 007e 103A     		subs	r2, r2, #16
 1723              		.loc 1 1166 6 view .LVU510
 1724 0080 012A     		cmp	r2, #1
 1725 0082 75D9     		bls	.L171
 1726              	.L157:
1167:Drivers/STM32F1xx_HAL_Driver/Src/stm32f1xx_hal_adc_ex.c ****       (sConfigInjected->InjectedChannel == ADC_CHANNEL_VREFINT)      )
1168:Drivers/STM32F1xx_HAL_Driver/Src/stm32f1xx_hal_adc_ex.c ****   {
1169:Drivers/STM32F1xx_HAL_Driver/Src/stm32f1xx_hal_adc_ex.c ****     SET_BIT(hadc->Instance->CR2, ADC_CR2_TSVREFE);
1170:Drivers/STM32F1xx_HAL_Driver/Src/stm32f1xx_hal_adc_ex.c ****   }
1171:Drivers/STM32F1xx_HAL_Driver/Src/stm32f1xx_hal_adc_ex.c ****   
1172:Drivers/STM32F1xx_HAL_Driver/Src/stm32f1xx_hal_adc_ex.c ****   
1173:Drivers/STM32F1xx_HAL_Driver/Src/stm32f1xx_hal_adc_ex.c ****   /* Configure the offset: offset enable/disable, InjectedChannel, offset value */
1174:Drivers/STM32F1xx_HAL_Driver/Src/stm32f1xx_hal_adc_ex.c ****   switch(sConfigInjected->InjectedRank)
 1727              		.loc 1 1174 3 is_stmt 1 view .LVU511
 1728              		.loc 1 1174 25 is_stmt 0 view .LVU512
 1729 0084 4A68     		ldr	r2, [r1, #4]
 1730              		.loc 1 1174 3 view .LVU513
 1731 0086 022A     		cmp	r2, #2
 1732 0088 00F08B80 		beq	.L158
ARM GAS  /tmp/ccKo6yLr.s 			page 55


 1733 008c 032A     		cmp	r2, #3
 1734 008e 00F09280 		beq	.L159
 1735 0092 012A     		cmp	r2, #1
 1736 0094 72D0     		beq	.L172
1175:Drivers/STM32F1xx_HAL_Driver/Src/stm32f1xx_hal_adc_ex.c ****   {
1176:Drivers/STM32F1xx_HAL_Driver/Src/stm32f1xx_hal_adc_ex.c ****     case 1:
1177:Drivers/STM32F1xx_HAL_Driver/Src/stm32f1xx_hal_adc_ex.c ****       /* Set injected channel 1 offset */
1178:Drivers/STM32F1xx_HAL_Driver/Src/stm32f1xx_hal_adc_ex.c ****       MODIFY_REG(hadc->Instance->JOFR1,
1179:Drivers/STM32F1xx_HAL_Driver/Src/stm32f1xx_hal_adc_ex.c ****                  ADC_JOFR1_JOFFSET1,
1180:Drivers/STM32F1xx_HAL_Driver/Src/stm32f1xx_hal_adc_ex.c ****                  sConfigInjected->InjectedOffset);
1181:Drivers/STM32F1xx_HAL_Driver/Src/stm32f1xx_hal_adc_ex.c ****       break;
1182:Drivers/STM32F1xx_HAL_Driver/Src/stm32f1xx_hal_adc_ex.c ****     case 2:
1183:Drivers/STM32F1xx_HAL_Driver/Src/stm32f1xx_hal_adc_ex.c ****       /* Set injected channel 2 offset */
1184:Drivers/STM32F1xx_HAL_Driver/Src/stm32f1xx_hal_adc_ex.c ****       MODIFY_REG(hadc->Instance->JOFR2,
1185:Drivers/STM32F1xx_HAL_Driver/Src/stm32f1xx_hal_adc_ex.c ****                  ADC_JOFR2_JOFFSET2,
1186:Drivers/STM32F1xx_HAL_Driver/Src/stm32f1xx_hal_adc_ex.c ****                  sConfigInjected->InjectedOffset);
1187:Drivers/STM32F1xx_HAL_Driver/Src/stm32f1xx_hal_adc_ex.c ****       break;
1188:Drivers/STM32F1xx_HAL_Driver/Src/stm32f1xx_hal_adc_ex.c ****     case 3:
1189:Drivers/STM32F1xx_HAL_Driver/Src/stm32f1xx_hal_adc_ex.c ****       /* Set injected channel 3 offset */
1190:Drivers/STM32F1xx_HAL_Driver/Src/stm32f1xx_hal_adc_ex.c ****       MODIFY_REG(hadc->Instance->JOFR3,
1191:Drivers/STM32F1xx_HAL_Driver/Src/stm32f1xx_hal_adc_ex.c ****                  ADC_JOFR3_JOFFSET3,
1192:Drivers/STM32F1xx_HAL_Driver/Src/stm32f1xx_hal_adc_ex.c ****                  sConfigInjected->InjectedOffset);
1193:Drivers/STM32F1xx_HAL_Driver/Src/stm32f1xx_hal_adc_ex.c ****       break;
1194:Drivers/STM32F1xx_HAL_Driver/Src/stm32f1xx_hal_adc_ex.c ****     case 4:
1195:Drivers/STM32F1xx_HAL_Driver/Src/stm32f1xx_hal_adc_ex.c ****     default:
1196:Drivers/STM32F1xx_HAL_Driver/Src/stm32f1xx_hal_adc_ex.c ****       MODIFY_REG(hadc->Instance->JOFR4,
 1737              		.loc 1 1196 7 is_stmt 1 view .LVU514
 1738 0096 1C68     		ldr	r4, [r3]
 1739 0098 226A     		ldr	r2, [r4, #32]
 1740 009a 22F47F62 		bic	r2, r2, #4080
 1741 009e 22F00F02 		bic	r2, r2, #15
 1742 00a2 CD68     		ldr	r5, [r1, #12]
 1743 00a4 2A43     		orrs	r2, r2, r5
 1744 00a6 2262     		str	r2, [r4, #32]
1197:Drivers/STM32F1xx_HAL_Driver/Src/stm32f1xx_hal_adc_ex.c ****                  ADC_JOFR4_JOFFSET4,
1198:Drivers/STM32F1xx_HAL_Driver/Src/stm32f1xx_hal_adc_ex.c ****                  sConfigInjected->InjectedOffset);
1199:Drivers/STM32F1xx_HAL_Driver/Src/stm32f1xx_hal_adc_ex.c ****       break;
 1745              		.loc 1 1199 7 view .LVU515
 1746 00a8 71E0     		b	.L161
 1747              	.LVL102:
 1748              	.L168:
1037:Drivers/STM32F1xx_HAL_Driver/Src/stm32f1xx_hal_adc_ex.c ****                  ADC_JSQR_JL   |
 1749              		.loc 1 1037 7 view .LVU516
 1750 00aa 1868     		ldr	r0, [r3]
 1751 00ac 826B     		ldr	r2, [r0, #56]
 1752 00ae 920D     		lsrs	r2, r2, #22
 1753 00b0 9205     		lsls	r2, r2, #22
 1754 00b2 0C68     		ldr	r4, [r1]
 1755 00b4 42EAC432 		orr	r2, r2, r4, lsl #15
 1756 00b8 8263     		str	r2, [r0, #56]
1002:Drivers/STM32F1xx_HAL_Driver/Src/stm32f1xx_hal_adc_ex.c ****   __IO uint32_t wait_loop_index = 0U;
 1757              		.loc 1 1002 21 is_stmt 0 view .LVU517
 1758 00ba 0020     		movs	r0, #0
 1759 00bc B8E7     		b	.L148
 1760              	.L146:
1062:Drivers/STM32F1xx_HAL_Driver/Src/stm32f1xx_hal_adc_ex.c ****     {
 1761              		.loc 1 1062 5 is_stmt 1 view .LVU518
ARM GAS  /tmp/ccKo6yLr.s 			page 56


1062:Drivers/STM32F1xx_HAL_Driver/Src/stm32f1xx_hal_adc_ex.c ****     {
 1762              		.loc 1 1062 24 is_stmt 0 view .LVU519
 1763 00be 4A68     		ldr	r2, [r1, #4]
1062:Drivers/STM32F1xx_HAL_Driver/Src/stm32f1xx_hal_adc_ex.c ****     {
 1764              		.loc 1 1062 57 view .LVU520
 1765 00c0 0C69     		ldr	r4, [r1, #16]
1062:Drivers/STM32F1xx_HAL_Driver/Src/stm32f1xx_hal_adc_ex.c ****     {
 1766              		.loc 1 1062 8 view .LVU521
 1767 00c2 A242     		cmp	r2, r4
 1768 00c4 16D8     		bhi	.L149
1066:Drivers/STM32F1xx_HAL_Driver/Src/stm32f1xx_hal_adc_ex.c ****                  
 1769              		.loc 1 1066 7 is_stmt 1 view .LVU522
 1770 00c6 1E68     		ldr	r6, [r3]
 1771 00c8 B56B     		ldr	r5, [r6, #56]
 1772 00ca 121B     		subs	r2, r2, r4
 1773 00cc 02EB8202 		add	r2, r2, r2, lsl #2
 1774 00d0 02F10F00 		add	r0, r2, #15
 1775 00d4 1F22     		movs	r2, #31
 1776 00d6 8240     		lsls	r2, r2, r0
 1777 00d8 42F44012 		orr	r2, r2, #3145728
 1778 00dc 25EA0205 		bic	r5, r5, r2
 1779 00e0 621E     		subs	r2, r4, #1
 1780 00e2 0C68     		ldr	r4, [r1]
 1781 00e4 04FA00F0 		lsl	r0, r4, r0
 1782 00e8 40EA0252 		orr	r2, r0, r2, lsl #20
 1783 00ec 2A43     		orrs	r2, r2, r5
 1784 00ee B263     		str	r2, [r6, #56]
1002:Drivers/STM32F1xx_HAL_Driver/Src/stm32f1xx_hal_adc_ex.c ****   __IO uint32_t wait_loop_index = 0U;
 1785              		.loc 1 1002 21 is_stmt 0 view .LVU523
 1786 00f0 0020     		movs	r0, #0
 1787 00f2 9DE7     		b	.L148
 1788              	.L149:
1081:Drivers/STM32F1xx_HAL_Driver/Src/stm32f1xx_hal_adc_ex.c ****                  
 1789              		.loc 1 1081 7 is_stmt 1 view .LVU524
 1790 00f4 1E68     		ldr	r6, [r3]
 1791 00f6 B56B     		ldr	r5, [r6, #56]
 1792 00f8 121B     		subs	r2, r2, r4
 1793 00fa 02EB8202 		add	r2, r2, r2, lsl #2
 1794 00fe 0F32     		adds	r2, r2, #15
 1795 0100 1F20     		movs	r0, #31
 1796 0102 00FA02F2 		lsl	r2, r0, r2
 1797 0106 42F44012 		orr	r2, r2, #3145728
 1798 010a 25EA0202 		bic	r2, r5, r2
 1799 010e B263     		str	r2, [r6, #56]
1002:Drivers/STM32F1xx_HAL_Driver/Src/stm32f1xx_hal_adc_ex.c ****   __IO uint32_t wait_loop_index = 0U;
 1800              		.loc 1 1002 21 is_stmt 0 view .LVU525
 1801 0110 0020     		movs	r0, #0
 1802 0112 8DE7     		b	.L148
 1803              	.LVL103:
 1804              	.L169:
1118:Drivers/STM32F1xx_HAL_Driver/Src/stm32f1xx_hal_adc_ex.c ****       {
 1805              		.loc 1 1118 7 is_stmt 1 view .LVU526
1118:Drivers/STM32F1xx_HAL_Driver/Src/stm32f1xx_hal_adc_ex.c ****       {
 1806              		.loc 1 1118 26 is_stmt 0 view .LVU527
 1807 0114 8C69     		ldr	r4, [r1, #24]
1118:Drivers/STM32F1xx_HAL_Driver/Src/stm32f1xx_hal_adc_ex.c ****       {
 1808              		.loc 1 1118 10 view .LVU528
ARM GAS  /tmp/ccKo6yLr.s 			page 57


 1809 0116 B4F5E04F 		cmp	r4, #28672
 1810 011a 05D0     		beq	.L173
1125:Drivers/STM32F1xx_HAL_Driver/Src/stm32f1xx_hal_adc_ex.c ****         
 1811              		.loc 1 1125 9 is_stmt 1 view .LVU529
 1812 011c 986A     		ldr	r0, [r3, #40]
 1813              	.LVL104:
1125:Drivers/STM32F1xx_HAL_Driver/Src/stm32f1xx_hal_adc_ex.c ****         
 1814              		.loc 1 1125 9 is_stmt 0 view .LVU530
 1815 011e 40F02000 		orr	r0, r0, #32
 1816 0122 9862     		str	r0, [r3, #40]
1127:Drivers/STM32F1xx_HAL_Driver/Src/stm32f1xx_hal_adc_ex.c ****       }
 1817              		.loc 1 1127 9 is_stmt 1 view .LVU531
 1818              	.LVL105:
1127:Drivers/STM32F1xx_HAL_Driver/Src/stm32f1xx_hal_adc_ex.c ****       }
 1819              		.loc 1 1127 24 is_stmt 0 view .LVU532
 1820 0124 1046     		mov	r0, r2
 1821 0126 93E7     		b	.L151
 1822              	.LVL106:
 1823              	.L173:
1120:Drivers/STM32F1xx_HAL_Driver/Src/stm32f1xx_hal_adc_ex.c ****       }
 1824              		.loc 1 1120 9 is_stmt 1 view .LVU533
 1825 0128 1C68     		ldr	r4, [r3]
 1826 012a 6268     		ldr	r2, [r4, #4]
 1827 012c 42F48062 		orr	r2, r2, #1024
 1828 0130 6260     		str	r2, [r4, #4]
 1829 0132 8DE7     		b	.L151
 1830              	.L170:
1135:Drivers/STM32F1xx_HAL_Driver/Src/stm32f1xx_hal_adc_ex.c ****       {
 1831              		.loc 1 1135 7 view .LVU534
1135:Drivers/STM32F1xx_HAL_Driver/Src/stm32f1xx_hal_adc_ex.c ****       {
 1832              		.loc 1 1135 26 is_stmt 0 view .LVU535
 1833 0134 4C7D     		ldrb	r4, [r1, #21]	@ zero_extendqisi2
1135:Drivers/STM32F1xx_HAL_Driver/Src/stm32f1xx_hal_adc_ex.c ****       {
 1834              		.loc 1 1135 10 view .LVU536
 1835 0136 2CB9     		cbnz	r4, .L154
1137:Drivers/STM32F1xx_HAL_Driver/Src/stm32f1xx_hal_adc_ex.c ****       } 
 1836              		.loc 1 1137 9 is_stmt 1 view .LVU537
 1837 0138 1C68     		ldr	r4, [r3]
 1838 013a 6268     		ldr	r2, [r4, #4]
 1839 013c 42F48052 		orr	r2, r2, #4096
 1840 0140 6260     		str	r2, [r4, #4]
 1841 0142 88E7     		b	.L153
 1842              	.L154:
1142:Drivers/STM32F1xx_HAL_Driver/Src/stm32f1xx_hal_adc_ex.c ****         
 1843              		.loc 1 1142 9 view .LVU538
 1844 0144 986A     		ldr	r0, [r3, #40]
 1845              	.LVL107:
1142:Drivers/STM32F1xx_HAL_Driver/Src/stm32f1xx_hal_adc_ex.c ****         
 1846              		.loc 1 1142 9 is_stmt 0 view .LVU539
 1847 0146 40F02000 		orr	r0, r0, #32
 1848 014a 9862     		str	r0, [r3, #40]
1144:Drivers/STM32F1xx_HAL_Driver/Src/stm32f1xx_hal_adc_ex.c ****       }
 1849              		.loc 1 1144 9 is_stmt 1 view .LVU540
 1850              	.LVL108:
1144:Drivers/STM32F1xx_HAL_Driver/Src/stm32f1xx_hal_adc_ex.c ****       }
 1851              		.loc 1 1144 24 is_stmt 0 view .LVU541
 1852 014c 1046     		mov	r0, r2
ARM GAS  /tmp/ccKo6yLr.s 			page 58


 1853 014e 82E7     		b	.L153
 1854              	.LVL109:
 1855              	.L155:
1159:Drivers/STM32F1xx_HAL_Driver/Src/stm32f1xx_hal_adc_ex.c ****                ADC_SMPR2(ADC_SMPR2_SMP0, sConfigInjected->InjectedChannel)                       ,
 1856              		.loc 1 1159 5 is_stmt 1 view .LVU542
 1857 0150 1D68     		ldr	r5, [r3]
 1858 0152 2C69     		ldr	r4, [r5, #16]
 1859 0154 02EB4202 		add	r2, r2, r2, lsl #1
 1860 0158 4FF0070C 		mov	ip, #7
 1861 015c 0CFA02FC 		lsl	ip, ip, r2
 1862 0160 24EA0C04 		bic	r4, r4, ip
 1863 0164 8E68     		ldr	r6, [r1, #8]
 1864 0166 06FA02F2 		lsl	r2, r6, r2
 1865 016a 2243     		orrs	r2, r2, r4
 1866 016c 2A61     		str	r2, [r5, #16]
 1867 016e 85E7     		b	.L156
 1868              	.L171:
1169:Drivers/STM32F1xx_HAL_Driver/Src/stm32f1xx_hal_adc_ex.c ****   }
 1869              		.loc 1 1169 5 view .LVU543
 1870 0170 1C68     		ldr	r4, [r3]
 1871 0172 A268     		ldr	r2, [r4, #8]
 1872 0174 42F40002 		orr	r2, r2, #8388608
 1873 0178 A260     		str	r2, [r4, #8]
 1874 017a 83E7     		b	.L157
 1875              	.L172:
1178:Drivers/STM32F1xx_HAL_Driver/Src/stm32f1xx_hal_adc_ex.c ****                  ADC_JOFR1_JOFFSET1,
 1876              		.loc 1 1178 7 view .LVU544
 1877 017c 1C68     		ldr	r4, [r3]
 1878 017e 6269     		ldr	r2, [r4, #20]
 1879 0180 22F47F62 		bic	r2, r2, #4080
 1880 0184 22F00F02 		bic	r2, r2, #15
 1881 0188 CD68     		ldr	r5, [r1, #12]
 1882 018a 2A43     		orrs	r2, r2, r5
 1883 018c 6261     		str	r2, [r4, #20]
1181:Drivers/STM32F1xx_HAL_Driver/Src/stm32f1xx_hal_adc_ex.c ****     case 2:
 1884              		.loc 1 1181 7 view .LVU545
 1885              	.L161:
1200:Drivers/STM32F1xx_HAL_Driver/Src/stm32f1xx_hal_adc_ex.c ****   }
1201:Drivers/STM32F1xx_HAL_Driver/Src/stm32f1xx_hal_adc_ex.c ****   
1202:Drivers/STM32F1xx_HAL_Driver/Src/stm32f1xx_hal_adc_ex.c ****   /* If ADC1 Channel_16 or Channel_17 is selected, enable Temperature sensor  */
1203:Drivers/STM32F1xx_HAL_Driver/Src/stm32f1xx_hal_adc_ex.c ****   /* and VREFINT measurement path.                                            */
1204:Drivers/STM32F1xx_HAL_Driver/Src/stm32f1xx_hal_adc_ex.c ****   if ((sConfigInjected->InjectedChannel == ADC_CHANNEL_TEMPSENSOR) ||
 1886              		.loc 1 1204 3 view .LVU546
 1887              		.loc 1 1204 23 is_stmt 0 view .LVU547
 1888 018e 0A68     		ldr	r2, [r1]
 1889              		.loc 1 1204 68 view .LVU548
 1890 0190 103A     		subs	r2, r2, #16
 1891              		.loc 1 1204 6 view .LVU549
 1892 0192 012A     		cmp	r2, #1
 1893 0194 19D9     		bls	.L174
 1894              	.LVL110:
 1895              	.L162:
1205:Drivers/STM32F1xx_HAL_Driver/Src/stm32f1xx_hal_adc_ex.c ****       (sConfigInjected->InjectedChannel == ADC_CHANNEL_VREFINT)      )
1206:Drivers/STM32F1xx_HAL_Driver/Src/stm32f1xx_hal_adc_ex.c ****   {
1207:Drivers/STM32F1xx_HAL_Driver/Src/stm32f1xx_hal_adc_ex.c ****     /* For STM32F1 devices with several ADC: Only ADC1 can access internal    */
1208:Drivers/STM32F1xx_HAL_Driver/Src/stm32f1xx_hal_adc_ex.c ****     /* measurement channels (VrefInt/TempSensor). If these channels are       */
1209:Drivers/STM32F1xx_HAL_Driver/Src/stm32f1xx_hal_adc_ex.c ****     /* intended to be set on other ADC instances, an error is reported.       */
ARM GAS  /tmp/ccKo6yLr.s 			page 59


1210:Drivers/STM32F1xx_HAL_Driver/Src/stm32f1xx_hal_adc_ex.c ****     if (hadc->Instance == ADC1)
1211:Drivers/STM32F1xx_HAL_Driver/Src/stm32f1xx_hal_adc_ex.c ****     {
1212:Drivers/STM32F1xx_HAL_Driver/Src/stm32f1xx_hal_adc_ex.c ****       if (READ_BIT(hadc->Instance->CR2, ADC_CR2_TSVREFE) == RESET)
1213:Drivers/STM32F1xx_HAL_Driver/Src/stm32f1xx_hal_adc_ex.c ****       {
1214:Drivers/STM32F1xx_HAL_Driver/Src/stm32f1xx_hal_adc_ex.c ****         SET_BIT(hadc->Instance->CR2, ADC_CR2_TSVREFE);
1215:Drivers/STM32F1xx_HAL_Driver/Src/stm32f1xx_hal_adc_ex.c ****         
1216:Drivers/STM32F1xx_HAL_Driver/Src/stm32f1xx_hal_adc_ex.c ****         if ((sConfigInjected->InjectedChannel == ADC_CHANNEL_TEMPSENSOR))
1217:Drivers/STM32F1xx_HAL_Driver/Src/stm32f1xx_hal_adc_ex.c ****         {
1218:Drivers/STM32F1xx_HAL_Driver/Src/stm32f1xx_hal_adc_ex.c ****           /* Delay for temperature sensor stabilization time */
1219:Drivers/STM32F1xx_HAL_Driver/Src/stm32f1xx_hal_adc_ex.c ****           /* Compute number of CPU cycles to wait for */
1220:Drivers/STM32F1xx_HAL_Driver/Src/stm32f1xx_hal_adc_ex.c ****           wait_loop_index = (ADC_TEMPSENSOR_DELAY_US * (SystemCoreClock / 1000000U));
1221:Drivers/STM32F1xx_HAL_Driver/Src/stm32f1xx_hal_adc_ex.c ****           while(wait_loop_index != 0U)
1222:Drivers/STM32F1xx_HAL_Driver/Src/stm32f1xx_hal_adc_ex.c ****           {
1223:Drivers/STM32F1xx_HAL_Driver/Src/stm32f1xx_hal_adc_ex.c ****             wait_loop_index--;
1224:Drivers/STM32F1xx_HAL_Driver/Src/stm32f1xx_hal_adc_ex.c ****           }
1225:Drivers/STM32F1xx_HAL_Driver/Src/stm32f1xx_hal_adc_ex.c ****         }
1226:Drivers/STM32F1xx_HAL_Driver/Src/stm32f1xx_hal_adc_ex.c ****       }
1227:Drivers/STM32F1xx_HAL_Driver/Src/stm32f1xx_hal_adc_ex.c ****     }
1228:Drivers/STM32F1xx_HAL_Driver/Src/stm32f1xx_hal_adc_ex.c ****     else
1229:Drivers/STM32F1xx_HAL_Driver/Src/stm32f1xx_hal_adc_ex.c ****     {
1230:Drivers/STM32F1xx_HAL_Driver/Src/stm32f1xx_hal_adc_ex.c ****       /* Update ADC state machine to error */
1231:Drivers/STM32F1xx_HAL_Driver/Src/stm32f1xx_hal_adc_ex.c ****       SET_BIT(hadc->State, HAL_ADC_STATE_ERROR_CONFIG);
1232:Drivers/STM32F1xx_HAL_Driver/Src/stm32f1xx_hal_adc_ex.c ****       
1233:Drivers/STM32F1xx_HAL_Driver/Src/stm32f1xx_hal_adc_ex.c ****       tmp_hal_status = HAL_ERROR;
1234:Drivers/STM32F1xx_HAL_Driver/Src/stm32f1xx_hal_adc_ex.c ****     }
1235:Drivers/STM32F1xx_HAL_Driver/Src/stm32f1xx_hal_adc_ex.c ****   }
1236:Drivers/STM32F1xx_HAL_Driver/Src/stm32f1xx_hal_adc_ex.c ****   
1237:Drivers/STM32F1xx_HAL_Driver/Src/stm32f1xx_hal_adc_ex.c ****   /* Process unlocked */
1238:Drivers/STM32F1xx_HAL_Driver/Src/stm32f1xx_hal_adc_ex.c ****   __HAL_UNLOCK(hadc);
 1896              		.loc 1 1238 3 is_stmt 1 view .LVU550
 1897              		.loc 1 1238 3 view .LVU551
 1898 0196 0022     		movs	r2, #0
 1899 0198 83F82420 		strb	r2, [r3, #36]
 1900              		.loc 1 1238 3 view .LVU552
1239:Drivers/STM32F1xx_HAL_Driver/Src/stm32f1xx_hal_adc_ex.c ****   
1240:Drivers/STM32F1xx_HAL_Driver/Src/stm32f1xx_hal_adc_ex.c ****   /* Return function status */
1241:Drivers/STM32F1xx_HAL_Driver/Src/stm32f1xx_hal_adc_ex.c ****   return tmp_hal_status;
 1901              		.loc 1 1241 3 view .LVU553
 1902              	.LVL111:
 1903              	.L145:
1242:Drivers/STM32F1xx_HAL_Driver/Src/stm32f1xx_hal_adc_ex.c **** }
 1904              		.loc 1 1242 1 is_stmt 0 view .LVU554
 1905 019c 03B0     		add	sp, sp, #12
 1906              	.LCFI26:
 1907              		.cfi_remember_state
 1908              		.cfi_def_cfa_offset 12
 1909              		@ sp needed
 1910 019e 70BC     		pop	{r4, r5, r6}
 1911              	.LCFI27:
 1912              		.cfi_restore 6
 1913              		.cfi_restore 5
 1914              		.cfi_restore 4
 1915              		.cfi_def_cfa_offset 0
 1916 01a0 7047     		bx	lr
 1917              	.LVL112:
 1918              	.L158:
 1919              	.LCFI28:
ARM GAS  /tmp/ccKo6yLr.s 			page 60


 1920              		.cfi_restore_state
1184:Drivers/STM32F1xx_HAL_Driver/Src/stm32f1xx_hal_adc_ex.c ****                  ADC_JOFR2_JOFFSET2,
 1921              		.loc 1 1184 7 is_stmt 1 view .LVU555
 1922 01a2 1C68     		ldr	r4, [r3]
 1923 01a4 A269     		ldr	r2, [r4, #24]
 1924 01a6 22F47F62 		bic	r2, r2, #4080
 1925 01aa 22F00F02 		bic	r2, r2, #15
 1926 01ae CD68     		ldr	r5, [r1, #12]
 1927 01b0 2A43     		orrs	r2, r2, r5
 1928 01b2 A261     		str	r2, [r4, #24]
1187:Drivers/STM32F1xx_HAL_Driver/Src/stm32f1xx_hal_adc_ex.c ****     case 3:
 1929              		.loc 1 1187 7 view .LVU556
 1930 01b4 EBE7     		b	.L161
 1931              	.L159:
1190:Drivers/STM32F1xx_HAL_Driver/Src/stm32f1xx_hal_adc_ex.c ****                  ADC_JOFR3_JOFFSET3,
 1932              		.loc 1 1190 7 view .LVU557
 1933 01b6 1C68     		ldr	r4, [r3]
 1934 01b8 E269     		ldr	r2, [r4, #28]
 1935 01ba 22F47F62 		bic	r2, r2, #4080
 1936 01be 22F00F02 		bic	r2, r2, #15
 1937 01c2 CD68     		ldr	r5, [r1, #12]
 1938 01c4 2A43     		orrs	r2, r2, r5
 1939 01c6 E261     		str	r2, [r4, #28]
1193:Drivers/STM32F1xx_HAL_Driver/Src/stm32f1xx_hal_adc_ex.c ****     case 4:
 1940              		.loc 1 1193 7 view .LVU558
 1941 01c8 E1E7     		b	.L161
 1942              	.L174:
1210:Drivers/STM32F1xx_HAL_Driver/Src/stm32f1xx_hal_adc_ex.c ****     {
 1943              		.loc 1 1210 5 view .LVU559
1210:Drivers/STM32F1xx_HAL_Driver/Src/stm32f1xx_hal_adc_ex.c ****     {
 1944              		.loc 1 1210 13 is_stmt 0 view .LVU560
 1945 01ca 1A68     		ldr	r2, [r3]
1210:Drivers/STM32F1xx_HAL_Driver/Src/stm32f1xx_hal_adc_ex.c ****     {
 1946              		.loc 1 1210 8 view .LVU561
 1947 01cc 134C     		ldr	r4, .L176
 1948 01ce A242     		cmp	r2, r4
 1949 01d0 05D0     		beq	.L175
1231:Drivers/STM32F1xx_HAL_Driver/Src/stm32f1xx_hal_adc_ex.c ****       
 1950              		.loc 1 1231 7 is_stmt 1 view .LVU562
 1951 01d2 9A6A     		ldr	r2, [r3, #40]
 1952 01d4 42F02002 		orr	r2, r2, #32
 1953 01d8 9A62     		str	r2, [r3, #40]
1233:Drivers/STM32F1xx_HAL_Driver/Src/stm32f1xx_hal_adc_ex.c ****     }
 1954              		.loc 1 1233 7 view .LVU563
 1955              	.LVL113:
1233:Drivers/STM32F1xx_HAL_Driver/Src/stm32f1xx_hal_adc_ex.c ****     }
 1956              		.loc 1 1233 22 is_stmt 0 view .LVU564
 1957 01da 0120     		movs	r0, #1
 1958 01dc DBE7     		b	.L162
 1959              	.LVL114:
 1960              	.L175:
1212:Drivers/STM32F1xx_HAL_Driver/Src/stm32f1xx_hal_adc_ex.c ****       {
 1961              		.loc 1 1212 7 is_stmt 1 view .LVU565
1212:Drivers/STM32F1xx_HAL_Driver/Src/stm32f1xx_hal_adc_ex.c ****       {
 1962              		.loc 1 1212 11 is_stmt 0 view .LVU566
 1963 01de 9468     		ldr	r4, [r2, #8]
1212:Drivers/STM32F1xx_HAL_Driver/Src/stm32f1xx_hal_adc_ex.c ****       {
ARM GAS  /tmp/ccKo6yLr.s 			page 61


 1964              		.loc 1 1212 10 view .LVU567
 1965 01e0 14F4000F 		tst	r4, #8388608
 1966 01e4 D7D1     		bne	.L162
1214:Drivers/STM32F1xx_HAL_Driver/Src/stm32f1xx_hal_adc_ex.c ****         
 1967              		.loc 1 1214 9 is_stmt 1 view .LVU568
 1968 01e6 9468     		ldr	r4, [r2, #8]
 1969 01e8 44F40004 		orr	r4, r4, #8388608
 1970 01ec 9460     		str	r4, [r2, #8]
1216:Drivers/STM32F1xx_HAL_Driver/Src/stm32f1xx_hal_adc_ex.c ****         {
 1971              		.loc 1 1216 9 view .LVU569
1216:Drivers/STM32F1xx_HAL_Driver/Src/stm32f1xx_hal_adc_ex.c ****         {
 1972              		.loc 1 1216 29 is_stmt 0 view .LVU570
 1973 01ee 0A68     		ldr	r2, [r1]
1216:Drivers/STM32F1xx_HAL_Driver/Src/stm32f1xx_hal_adc_ex.c ****         {
 1974              		.loc 1 1216 12 view .LVU571
 1975 01f0 102A     		cmp	r2, #16
 1976 01f2 D0D1     		bne	.L162
1220:Drivers/STM32F1xx_HAL_Driver/Src/stm32f1xx_hal_adc_ex.c ****           while(wait_loop_index != 0U)
 1977              		.loc 1 1220 11 is_stmt 1 view .LVU572
1220:Drivers/STM32F1xx_HAL_Driver/Src/stm32f1xx_hal_adc_ex.c ****           while(wait_loop_index != 0U)
 1978              		.loc 1 1220 73 is_stmt 0 view .LVU573
 1979 01f4 0A4A     		ldr	r2, .L176+4
 1980 01f6 1268     		ldr	r2, [r2]
 1981 01f8 0A49     		ldr	r1, .L176+8
 1982              	.LVL115:
1220:Drivers/STM32F1xx_HAL_Driver/Src/stm32f1xx_hal_adc_ex.c ****           while(wait_loop_index != 0U)
 1983              		.loc 1 1220 73 view .LVU574
 1984 01fa A1FB0212 		umull	r1, r2, r1, r2
 1985 01fe 920C     		lsrs	r2, r2, #18
1220:Drivers/STM32F1xx_HAL_Driver/Src/stm32f1xx_hal_adc_ex.c ****           while(wait_loop_index != 0U)
 1986              		.loc 1 1220 54 view .LVU575
 1987 0200 02EB8202 		add	r2, r2, r2, lsl #2
 1988 0204 5200     		lsls	r2, r2, #1
1220:Drivers/STM32F1xx_HAL_Driver/Src/stm32f1xx_hal_adc_ex.c ****           while(wait_loop_index != 0U)
 1989              		.loc 1 1220 27 view .LVU576
 1990 0206 0192     		str	r2, [sp, #4]
1221:Drivers/STM32F1xx_HAL_Driver/Src/stm32f1xx_hal_adc_ex.c ****           {
 1991              		.loc 1 1221 11 is_stmt 1 view .LVU577
1221:Drivers/STM32F1xx_HAL_Driver/Src/stm32f1xx_hal_adc_ex.c ****           {
 1992              		.loc 1 1221 16 is_stmt 0 view .LVU578
 1993 0208 02E0     		b	.L164
 1994              	.L165:
1223:Drivers/STM32F1xx_HAL_Driver/Src/stm32f1xx_hal_adc_ex.c ****           }
 1995              		.loc 1 1223 13 is_stmt 1 view .LVU579
1223:Drivers/STM32F1xx_HAL_Driver/Src/stm32f1xx_hal_adc_ex.c ****           }
 1996              		.loc 1 1223 28 is_stmt 0 view .LVU580
 1997 020a 019A     		ldr	r2, [sp, #4]
 1998 020c 013A     		subs	r2, r2, #1
 1999 020e 0192     		str	r2, [sp, #4]
 2000              	.L164:
1221:Drivers/STM32F1xx_HAL_Driver/Src/stm32f1xx_hal_adc_ex.c ****           {
 2001              		.loc 1 1221 16 is_stmt 1 view .LVU581
1221:Drivers/STM32F1xx_HAL_Driver/Src/stm32f1xx_hal_adc_ex.c ****           {
 2002              		.loc 1 1221 33 is_stmt 0 view .LVU582
 2003 0210 019A     		ldr	r2, [sp, #4]
1221:Drivers/STM32F1xx_HAL_Driver/Src/stm32f1xx_hal_adc_ex.c ****           {
 2004              		.loc 1 1221 16 view .LVU583
ARM GAS  /tmp/ccKo6yLr.s 			page 62


 2005 0212 002A     		cmp	r2, #0
 2006 0214 F9D1     		bne	.L165
 2007 0216 BEE7     		b	.L162
 2008              	.LVL116:
 2009              	.L166:
1021:Drivers/STM32F1xx_HAL_Driver/Src/stm32f1xx_hal_adc_ex.c ****   
 2010              		.loc 1 1021 3 view .LVU584
 2011 0218 0220     		movs	r0, #2
 2012 021a BFE7     		b	.L145
 2013              	.L177:
 2014              		.align	2
 2015              	.L176:
 2016 021c 00240140 		.word	1073816576
 2017 0220 00000000 		.word	SystemCoreClock
 2018 0224 83DE1B43 		.word	1125899907
 2019              		.cfi_endproc
 2020              	.LFE76:
 2022              		.section	.text.HAL_ADCEx_MultiModeConfigChannel,"ax",%progbits
 2023              		.align	1
 2024              		.global	HAL_ADCEx_MultiModeConfigChannel
 2025              		.syntax unified
 2026              		.thumb
 2027              		.thumb_func
 2028              		.fpu softvfp
 2030              	HAL_ADCEx_MultiModeConfigChannel:
 2031              	.LVL117:
 2032              	.LFB77:
1243:Drivers/STM32F1xx_HAL_Driver/Src/stm32f1xx_hal_adc_ex.c **** 
1244:Drivers/STM32F1xx_HAL_Driver/Src/stm32f1xx_hal_adc_ex.c **** #if defined (STM32F103x6) || defined (STM32F103xB) || defined (STM32F105xC) || defined (STM32F107xC
1245:Drivers/STM32F1xx_HAL_Driver/Src/stm32f1xx_hal_adc_ex.c **** /**
1246:Drivers/STM32F1xx_HAL_Driver/Src/stm32f1xx_hal_adc_ex.c ****   * @brief  Enable ADC multimode and configure multimode parameters
1247:Drivers/STM32F1xx_HAL_Driver/Src/stm32f1xx_hal_adc_ex.c ****   * @note   Possibility to update parameters on the fly:
1248:Drivers/STM32F1xx_HAL_Driver/Src/stm32f1xx_hal_adc_ex.c ****   *         This function initializes multimode parameters, following  
1249:Drivers/STM32F1xx_HAL_Driver/Src/stm32f1xx_hal_adc_ex.c ****   *         calls to this function can be used to reconfigure some parameters 
1250:Drivers/STM32F1xx_HAL_Driver/Src/stm32f1xx_hal_adc_ex.c ****   *         of structure "ADC_MultiModeTypeDef" on the fly, without resetting 
1251:Drivers/STM32F1xx_HAL_Driver/Src/stm32f1xx_hal_adc_ex.c ****   *         the ADCs (both ADCs of the common group).
1252:Drivers/STM32F1xx_HAL_Driver/Src/stm32f1xx_hal_adc_ex.c ****   *         The setting of these parameters is conditioned to ADC state.
1253:Drivers/STM32F1xx_HAL_Driver/Src/stm32f1xx_hal_adc_ex.c ****   *         For parameters constraints, see comments of structure 
1254:Drivers/STM32F1xx_HAL_Driver/Src/stm32f1xx_hal_adc_ex.c ****   *         "ADC_MultiModeTypeDef".
1255:Drivers/STM32F1xx_HAL_Driver/Src/stm32f1xx_hal_adc_ex.c ****   * @note   To change back configuration from multimode to single mode, ADC must
1256:Drivers/STM32F1xx_HAL_Driver/Src/stm32f1xx_hal_adc_ex.c ****   *         be reset (using function HAL_ADC_Init() ).
1257:Drivers/STM32F1xx_HAL_Driver/Src/stm32f1xx_hal_adc_ex.c ****   * @param  hadc: ADC handle
1258:Drivers/STM32F1xx_HAL_Driver/Src/stm32f1xx_hal_adc_ex.c ****   * @param  multimode: Structure of ADC multimode configuration
1259:Drivers/STM32F1xx_HAL_Driver/Src/stm32f1xx_hal_adc_ex.c ****   * @retval HAL status
1260:Drivers/STM32F1xx_HAL_Driver/Src/stm32f1xx_hal_adc_ex.c ****   */
1261:Drivers/STM32F1xx_HAL_Driver/Src/stm32f1xx_hal_adc_ex.c **** HAL_StatusTypeDef HAL_ADCEx_MultiModeConfigChannel(ADC_HandleTypeDef* hadc, ADC_MultiModeTypeDef* m
1262:Drivers/STM32F1xx_HAL_Driver/Src/stm32f1xx_hal_adc_ex.c **** {
 2033              		.loc 1 1262 1 is_stmt 1 view -0
 2034              		.cfi_startproc
 2035              		@ args = 0, pretend = 0, frame = 48
 2036              		@ frame_needed = 0, uses_anonymous_args = 0
 2037              		.loc 1 1262 1 is_stmt 0 view .LVU586
 2038 0000 30B5     		push	{r4, r5, lr}
 2039              	.LCFI29:
 2040              		.cfi_def_cfa_offset 12
 2041              		.cfi_offset 4, -12
 2042              		.cfi_offset 5, -8
ARM GAS  /tmp/ccKo6yLr.s 			page 63


 2043              		.cfi_offset 14, -4
 2044 0002 8DB0     		sub	sp, sp, #52
 2045              	.LCFI30:
 2046              		.cfi_def_cfa_offset 64
 2047 0004 0446     		mov	r4, r0
 2048 0006 0D46     		mov	r5, r1
1263:Drivers/STM32F1xx_HAL_Driver/Src/stm32f1xx_hal_adc_ex.c ****   HAL_StatusTypeDef tmp_hal_status = HAL_OK;
 2049              		.loc 1 1263 3 is_stmt 1 view .LVU587
 2050              	.LVL118:
1264:Drivers/STM32F1xx_HAL_Driver/Src/stm32f1xx_hal_adc_ex.c ****   ADC_HandleTypeDef tmphadcSlave={0};
 2051              		.loc 1 1264 3 view .LVU588
 2052              		.loc 1 1264 21 is_stmt 0 view .LVU589
 2053 0008 3022     		movs	r2, #48
 2054 000a 0021     		movs	r1, #0
 2055              	.LVL119:
 2056              		.loc 1 1264 21 view .LVU590
 2057 000c 6846     		mov	r0, sp
 2058              	.LVL120:
 2059              		.loc 1 1264 21 view .LVU591
 2060 000e FFF7FEFF 		bl	memset
 2061              	.LVL121:
1265:Drivers/STM32F1xx_HAL_Driver/Src/stm32f1xx_hal_adc_ex.c ****   
1266:Drivers/STM32F1xx_HAL_Driver/Src/stm32f1xx_hal_adc_ex.c ****   /* Check the parameters */
1267:Drivers/STM32F1xx_HAL_Driver/Src/stm32f1xx_hal_adc_ex.c ****   assert_param(IS_ADC_MULTIMODE_MASTER_INSTANCE(hadc->Instance));
 2062              		.loc 1 1267 3 is_stmt 1 view .LVU592
1268:Drivers/STM32F1xx_HAL_Driver/Src/stm32f1xx_hal_adc_ex.c ****   assert_param(IS_ADC_MODE(multimode->Mode));
 2063              		.loc 1 1268 3 view .LVU593
1269:Drivers/STM32F1xx_HAL_Driver/Src/stm32f1xx_hal_adc_ex.c ****   
1270:Drivers/STM32F1xx_HAL_Driver/Src/stm32f1xx_hal_adc_ex.c ****   /* Process locked */
1271:Drivers/STM32F1xx_HAL_Driver/Src/stm32f1xx_hal_adc_ex.c ****   __HAL_LOCK(hadc);
 2064              		.loc 1 1271 3 view .LVU594
 2065              		.loc 1 1271 3 view .LVU595
 2066 0012 94F82430 		ldrb	r3, [r4, #36]	@ zero_extendqisi2
 2067 0016 012B     		cmp	r3, #1
 2068 0018 23D0     		beq	.L182
 2069              		.loc 1 1271 3 discriminator 2 view .LVU596
 2070 001a 0123     		movs	r3, #1
 2071 001c 84F82430 		strb	r3, [r4, #36]
 2072              		.loc 1 1271 3 discriminator 2 view .LVU597
1272:Drivers/STM32F1xx_HAL_Driver/Src/stm32f1xx_hal_adc_ex.c ****   
1273:Drivers/STM32F1xx_HAL_Driver/Src/stm32f1xx_hal_adc_ex.c ****   /* Set a temporary handle of the ADC slave associated to the ADC master     */
1274:Drivers/STM32F1xx_HAL_Driver/Src/stm32f1xx_hal_adc_ex.c ****   ADC_MULTI_SLAVE(hadc, &tmphadcSlave);
 2073              		.loc 1 1274 3 discriminator 2 view .LVU598
 2074 0020 114B     		ldr	r3, .L185
 2075 0022 0093     		str	r3, [sp]
1275:Drivers/STM32F1xx_HAL_Driver/Src/stm32f1xx_hal_adc_ex.c ****   
1276:Drivers/STM32F1xx_HAL_Driver/Src/stm32f1xx_hal_adc_ex.c ****   /* Parameters update conditioned to ADC state:                              */
1277:Drivers/STM32F1xx_HAL_Driver/Src/stm32f1xx_hal_adc_ex.c ****   /* Parameters that can be updated when ADC is disabled or enabled without   */
1278:Drivers/STM32F1xx_HAL_Driver/Src/stm32f1xx_hal_adc_ex.c ****   /* conversion on going on regular group:                                    */
1279:Drivers/STM32F1xx_HAL_Driver/Src/stm32f1xx_hal_adc_ex.c ****   /*  - ADC master and ADC slave DMA configuration                            */
1280:Drivers/STM32F1xx_HAL_Driver/Src/stm32f1xx_hal_adc_ex.c ****   /* Parameters that can be updated only when ADC is disabled:                */
1281:Drivers/STM32F1xx_HAL_Driver/Src/stm32f1xx_hal_adc_ex.c ****   /*  - Multimode mode selection                                              */
1282:Drivers/STM32F1xx_HAL_Driver/Src/stm32f1xx_hal_adc_ex.c ****   /* To optimize code, all multimode settings can be set when both ADCs of    */
1283:Drivers/STM32F1xx_HAL_Driver/Src/stm32f1xx_hal_adc_ex.c ****   /* the common group are in state: disabled.                                 */
1284:Drivers/STM32F1xx_HAL_Driver/Src/stm32f1xx_hal_adc_ex.c ****   if ((ADC_IS_ENABLE(hadc) == RESET)                     &&
 2076              		.loc 1 1284 3 discriminator 2 view .LVU599
 2077              		.loc 1 1284 8 is_stmt 0 discriminator 2 view .LVU600
ARM GAS  /tmp/ccKo6yLr.s 			page 64


 2078 0024 2368     		ldr	r3, [r4]
 2079 0026 9A68     		ldr	r2, [r3, #8]
 2080              		.loc 1 1284 6 discriminator 2 view .LVU601
 2081 0028 12F0010F 		tst	r2, #1
 2082 002c 07D1     		bne	.L180
1285:Drivers/STM32F1xx_HAL_Driver/Src/stm32f1xx_hal_adc_ex.c ****       (ADC_IS_ENABLE(&tmphadcSlave) == RESET)            &&
 2083              		.loc 1 1285 8 discriminator 1 view .LVU602
 2084 002e 0E4A     		ldr	r2, .L185
 2085 0030 9268     		ldr	r2, [r2, #8]
1284:Drivers/STM32F1xx_HAL_Driver/Src/stm32f1xx_hal_adc_ex.c ****       (ADC_IS_ENABLE(&tmphadcSlave) == RESET)            &&
 2086              		.loc 1 1284 58 discriminator 1 view .LVU603
 2087 0032 12F0010F 		tst	r2, #1
 2088 0036 02D1     		bne	.L180
 2089              		.loc 1 1285 58 view .LVU604
 2090 0038 0C4A     		ldr	r2, .L185+4
 2091 003a 9342     		cmp	r3, r2
 2092 003c 09D0     		beq	.L184
 2093              	.L180:
1286:Drivers/STM32F1xx_HAL_Driver/Src/stm32f1xx_hal_adc_ex.c ****       (IS_ADC_MULTIMODE_MASTER_INSTANCE(hadc->Instance))   )
1287:Drivers/STM32F1xx_HAL_Driver/Src/stm32f1xx_hal_adc_ex.c ****   {
1288:Drivers/STM32F1xx_HAL_Driver/Src/stm32f1xx_hal_adc_ex.c ****     MODIFY_REG(hadc->Instance->CR1,
1289:Drivers/STM32F1xx_HAL_Driver/Src/stm32f1xx_hal_adc_ex.c ****                ADC_CR1_DUALMOD    ,
1290:Drivers/STM32F1xx_HAL_Driver/Src/stm32f1xx_hal_adc_ex.c ****                multimode->Mode     );
1291:Drivers/STM32F1xx_HAL_Driver/Src/stm32f1xx_hal_adc_ex.c ****   }
1292:Drivers/STM32F1xx_HAL_Driver/Src/stm32f1xx_hal_adc_ex.c ****   /* If one of the ADC sharing the same common group is enabled, no update    */
1293:Drivers/STM32F1xx_HAL_Driver/Src/stm32f1xx_hal_adc_ex.c ****   /* could be done on neither of the multimode structure parameters.          */
1294:Drivers/STM32F1xx_HAL_Driver/Src/stm32f1xx_hal_adc_ex.c ****   else
1295:Drivers/STM32F1xx_HAL_Driver/Src/stm32f1xx_hal_adc_ex.c ****   {
1296:Drivers/STM32F1xx_HAL_Driver/Src/stm32f1xx_hal_adc_ex.c ****     /* Update ADC state machine to error */
1297:Drivers/STM32F1xx_HAL_Driver/Src/stm32f1xx_hal_adc_ex.c ****     SET_BIT(hadc->State, HAL_ADC_STATE_ERROR_CONFIG);
 2094              		.loc 1 1297 5 is_stmt 1 view .LVU605
 2095 003e A36A     		ldr	r3, [r4, #40]
 2096 0040 43F02003 		orr	r3, r3, #32
 2097 0044 A362     		str	r3, [r4, #40]
1298:Drivers/STM32F1xx_HAL_Driver/Src/stm32f1xx_hal_adc_ex.c ****     
1299:Drivers/STM32F1xx_HAL_Driver/Src/stm32f1xx_hal_adc_ex.c ****     tmp_hal_status = HAL_ERROR;
 2098              		.loc 1 1299 5 view .LVU606
 2099              	.LVL122:
 2100              		.loc 1 1299 20 is_stmt 0 view .LVU607
 2101 0046 0120     		movs	r0, #1
 2102              	.LVL123:
 2103              	.L181:
1300:Drivers/STM32F1xx_HAL_Driver/Src/stm32f1xx_hal_adc_ex.c ****   }
1301:Drivers/STM32F1xx_HAL_Driver/Src/stm32f1xx_hal_adc_ex.c ****     
1302:Drivers/STM32F1xx_HAL_Driver/Src/stm32f1xx_hal_adc_ex.c ****     
1303:Drivers/STM32F1xx_HAL_Driver/Src/stm32f1xx_hal_adc_ex.c ****   /* Process unlocked */
1304:Drivers/STM32F1xx_HAL_Driver/Src/stm32f1xx_hal_adc_ex.c ****   __HAL_UNLOCK(hadc);
 2104              		.loc 1 1304 3 is_stmt 1 view .LVU608
 2105              		.loc 1 1304 3 view .LVU609
 2106 0048 0023     		movs	r3, #0
 2107 004a 84F82430 		strb	r3, [r4, #36]
 2108              		.loc 1 1304 3 view .LVU610
1305:Drivers/STM32F1xx_HAL_Driver/Src/stm32f1xx_hal_adc_ex.c ****   
1306:Drivers/STM32F1xx_HAL_Driver/Src/stm32f1xx_hal_adc_ex.c ****   /* Return function status */
1307:Drivers/STM32F1xx_HAL_Driver/Src/stm32f1xx_hal_adc_ex.c ****   return tmp_hal_status;
 2109              		.loc 1 1307 3 view .LVU611
 2110              	.LVL124:
ARM GAS  /tmp/ccKo6yLr.s 			page 65


 2111              	.L179:
1308:Drivers/STM32F1xx_HAL_Driver/Src/stm32f1xx_hal_adc_ex.c **** } 
 2112              		.loc 1 1308 1 is_stmt 0 view .LVU612
 2113 004e 0DB0     		add	sp, sp, #52
 2114              	.LCFI31:
 2115              		.cfi_remember_state
 2116              		.cfi_def_cfa_offset 12
 2117              		@ sp needed
 2118 0050 30BD     		pop	{r4, r5, pc}
 2119              	.LVL125:
 2120              	.L184:
 2121              	.LCFI32:
 2122              		.cfi_restore_state
1288:Drivers/STM32F1xx_HAL_Driver/Src/stm32f1xx_hal_adc_ex.c ****                ADC_CR1_DUALMOD    ,
 2123              		.loc 1 1288 5 is_stmt 1 view .LVU613
 2124 0052 5A68     		ldr	r2, [r3, #4]
 2125 0054 22F47022 		bic	r2, r2, #983040
 2126 0058 2968     		ldr	r1, [r5]
 2127 005a 0A43     		orrs	r2, r2, r1
 2128 005c 5A60     		str	r2, [r3, #4]
1263:Drivers/STM32F1xx_HAL_Driver/Src/stm32f1xx_hal_adc_ex.c ****   ADC_HandleTypeDef tmphadcSlave={0};
 2129              		.loc 1 1263 21 is_stmt 0 view .LVU614
 2130 005e 0020     		movs	r0, #0
1288:Drivers/STM32F1xx_HAL_Driver/Src/stm32f1xx_hal_adc_ex.c ****                ADC_CR1_DUALMOD    ,
 2131              		.loc 1 1288 5 view .LVU615
 2132 0060 F2E7     		b	.L181
 2133              	.L182:
1271:Drivers/STM32F1xx_HAL_Driver/Src/stm32f1xx_hal_adc_ex.c ****   
 2134              		.loc 1 1271 3 view .LVU616
 2135 0062 0220     		movs	r0, #2
 2136 0064 F3E7     		b	.L179
 2137              	.L186:
 2138 0066 00BF     		.align	2
 2139              	.L185:
 2140 0068 00280140 		.word	1073817600
 2141 006c 00240140 		.word	1073816576
 2142              		.cfi_endproc
 2143              	.LFE77:
 2145              		.text
 2146              	.Letext0:
 2147              		.file 2 "Drivers/CMSIS/Device/ST/STM32F1xx/Include/stm32f103xb.h"
 2148              		.file 3 "/usr/lib/gcc/arm-none-eabi/10.3.1/include/stdint.h"
 2149              		.file 4 "Drivers/CMSIS/Device/ST/STM32F1xx/Include/stm32f1xx.h"
 2150              		.file 5 "Drivers/STM32F1xx_HAL_Driver/Inc/stm32f1xx_hal_def.h"
 2151              		.file 6 "Drivers/STM32F1xx_HAL_Driver/Inc/stm32f1xx_hal_dma.h"
 2152              		.file 7 "Drivers/STM32F1xx_HAL_Driver/Inc/stm32f1xx_hal_adc.h"
 2153              		.file 8 "Drivers/STM32F1xx_HAL_Driver/Inc/stm32f1xx_hal_adc_ex.h"
 2154              		.file 9 "Drivers/CMSIS/Device/ST/STM32F1xx/Include/system_stm32f1xx.h"
 2155              		.file 10 "Drivers/STM32F1xx_HAL_Driver/Inc/stm32f1xx_hal.h"
 2156              		.file 11 "Drivers/STM32F1xx_HAL_Driver/Inc/stm32f1xx_hal_rcc_ex.h"
 2157              		.file 12 "<built-in>"
ARM GAS  /tmp/ccKo6yLr.s 			page 66

